0000000000401b34 <start_farm>:
  401b34:	b8 01 00 00 00       	mov    $0x1,%eax
  401b39:	c3                   	retq   

0000000000401b3a <addval_283>:
  401b3a:	8d 87 59 58 91 c3    	lea    -0x3c6ea7a7(%rdi),%eax
  401b40:	c3                   	retq   

0000000000401b41 <getval_464>:
  401b41:	b8 58 90 90 c3       	mov    $0xc3909058,%eax
  401b46:	c3                   	retq   

0000000000401b47 <setval_110>:
  401b47:	c7 07 48 c9 c7 c3    	movl   $0xc3c7c948,(%rdi)
  401b4d:	c3                   	retq   

0000000000401b4e <setval_214>:
  401b4e:	c7 07 48 89 c7 c3    	movl   $0xc3c78948,(%rdi)
  401b54:	c3                   	retq   

0000000000401b55 <getval_235>:
  401b55:	b8 58 90 90 c3       	mov    $0xc3909058,%eax
  401b5a:	c3                   	retq   

0000000000401b5b <addval_499>:
  401b5b:	8d 87 48 90 90 90    	lea    -0x6f6f6fb8(%rdi),%eax
  401b61:	c3                   	retq   

0000000000401b62 <getval_174>:
  401b62:	b8 48 88 c7 c3       	mov    $0xc3c78848,%eax
  401b67:	c3                   	retq   

0000000000401b68 <setval_489>:
  401b68:	c7 07 48 89 c7 c3    	movl   $0xc3c78948,(%rdi)
  401b6e:	c3                   	retq   

0000000000401b6f <mid_farm>:
  401b6f:	b8 01 00 00 00       	mov    $0x1,%eax
  401b74:	c3                   	retq   

0000000000401b75 <add_xy>:
  401b75:	48 8d 04 37          	lea    (%rdi,%rsi,1),%rax
  401b79:	c3                   	retq   

0000000000401b7a <getval_452>:
  401b7a:	b8 89 c1 94 90       	mov    $0x9094c189,%eax
  401b7f:	c3                   	retq   

0000000000401b80 <addval_277>:
  401b80:	8d 87 09 ca 38 c0    	lea    -0x3fc735f7(%rdi),%eax
  401b86:	c3                   	retq   

0000000000401b87 <addval_453>:
  401b87:	8d 87 89 d6 84 c9    	lea    -0x367b2977(%rdi),%eax
  401b8d:	c3                   	retq   

0000000000401b8e <getval_355>:
  401b8e:	b8 6b 81 d6 c3       	mov    $0xc3d6816b,%eax
  401b93:	c3                   	retq   

0000000000401b94 <getval_168>:
  401b94:	b8 49 89 d6 c3       	mov    $0xc3d68949,%eax
  401b99:	c3                   	retq   

0000000000401b9a <addval_236>:
  401b9a:	8d 87 89 d6 90 c1    	lea    -0x3e6f2977(%rdi),%eax
  401ba0:	c3                   	retq   

0000000000401ba1 <getval_458>:
  401ba1:	b8 89 ca 90 90       	mov    $0x9090ca89,%eax
  401ba6:	c3                   	retq   

0000000000401ba7 <getval_370>:
  401ba7:	b8 89 ca 18 db       	mov    $0xdb18ca89,%eax
  401bac:	c3                   	retq   

0000000000401bad <addval_315>:
  401bad:	8d 87 a9 ca 90 90    	lea    -0x6f6f3557(%rdi),%eax
  401bb3:	c3                   	retq   

0000000000401bb4 <getval_220>:
  401bb4:	b8 99 ca c3 22       	mov    $0x22c3ca99,%eax
  401bb9:	c3                   	retq   

0000000000401bba <setval_461>:
  401bba:	c7 07 48 89 e0 c3    	movl   $0xc3e08948,(%rdi)
  401bc0:	c3                   	retq   

0000000000401bc1 <addval_246>:
  401bc1:	8d 87 89 ca 08 d2    	lea    -0x2df73577(%rdi),%eax
  401bc7:	c3                   	retq   

0000000000401bc8 <getval_255>:
  401bc8:	b8 88 d6 38 c9       	mov    $0xc938d688,%eax
  401bcd:	c3                   	retq   

0000000000401bce <getval_279>:
  401bce:	b8 88 c1 08 d2       	mov    $0xd208c188,%eax
  401bd3:	c3                   	retq   

0000000000401bd4 <setval_158>:
  401bd4:	c7 07 c9 ca 84 c9    	movl   $0xc984cac9,(%rdi)
  401bda:	c3                   	retq   

0000000000401bdb <getval_322>:
  401bdb:	b8 89 c1 28 c0       	mov    $0xc028c189,%eax
  401be0:	c3                   	retq   

0000000000401be1 <addval_156>:
  401be1:	8d 87 48 89 e0 c3    	lea    -0x3c1f76b8(%rdi),%eax
  401be7:	c3                   	retq   

0000000000401be8 <addval_423>:
  401be8:	8d 87 89 d6 94 c9    	lea    -0x366b2977(%rdi),%eax
  401bee:	c3                   	retq   

0000000000401bef <setval_395>:
  401bef:	c7 07 0d 89 c1 91    	movl   $0x91c1890d,(%rdi)
  401bf5:	c3                   	retq   

0000000000401bf6 <setval_443>:
  401bf6:	c7 07 89 c1 60 db    	movl   $0xdb60c189,(%rdi)
  401bfc:	c3                   	retq   

0000000000401bfd <setval_154>:
  401bfd:	c7 07 48 89 e0 c7    	movl   $0xc7e08948,(%rdi)
  401c03:	c3                   	retq   

0000000000401c04 <getval_428>:
  401c04:	b8 89 d6 78 c9       	mov    $0xc978d689,%eax
  401c09:	c3                   	retq   

0000000000401c0a <setval_310>:
  401c0a:	c7 07 48 89 e0 c7    	movl   $0xc7e08948,(%rdi)
  401c10:	c3                   	retq   

0000000000401c11 <setval_479>:
  401c11:	c7 07 48 89 e0 94    	movl   $0x94e08948,(%rdi)
  401c17:	c3                   	retq   

0000000000401c18 <setval_346>:
  401c18:	c7 07 48 89 e0 c2    	movl   $0xc2e08948,(%rdi)
  401c1e:	c3                   	retq   

0000000000401c1f <getval_386>:
  401c1f:	b8 89 ca 60 c0       	mov    $0xc060ca89,%eax
  401c24:	c3                   	retq   

0000000000401c25 <addval_311>:
  401c25:	8d 87 de 89 d6 c7    	lea    -0x38297622(%rdi),%eax
  401c2b:	c3                   	retq   

0000000000401c2c <setval_351>:
  401c2c:	c7 07 b4 e9 09 c1    	movl   $0xc109e9b4,(%rdi)
  401c32:	c3                   	retq   

0000000000401c33 <getval_312>:
  401c33:	b8 4c 89 e0 c3       	mov    $0xc3e0894c,%eax
  401c38:	c3                   	retq   

0000000000401c39 <getval_191>:
  401c39:	b8 89 c1 90 c3       	mov    $0xc390c189,%eax
  401c3e:	c3                   	retq   

0000000000401c3f <setval_247>:
  401c3f:	c7 07 89 c1 20 d2    	movl   $0xd220c189,(%rdi)
  401c45:	c3                   	retq   

0000000000401c46 <addval_347>:
  401c46:	8d 87 48 89 e0 c2    	lea    -0x3d1f76b8(%rdi),%eax
  401c4c:	c3                   	retq   

0000000000401c4d <end_farm>:
  401c4d:	b8 01 00 00 00       	mov    $0x1,%eax
  401c52:	c3                   	retq   