
ctarget:     file format elf64-x86-64


Disassembly of section .init:

0000000000400c48 <_init>:
  400c48:	48 83 ec 08          	sub    $0x8,%rsp
  400c4c:	48 8b 05 a5 43 20 00 	mov    0x2043a5(%rip),%rax        # 604ff8 <_DYNAMIC+0x1d0>
  400c53:	48 85 c0             	test   %rax,%rax
  400c56:	74 05                	je     400c5d <_init+0x15>
  400c58:	e8 43 02 00 00       	callq  400ea0 <socket@plt+0x10>
  400c5d:	48 83 c4 08          	add    $0x8,%rsp
  400c61:	c3                   	retq   

Disassembly of section .plt:

0000000000400c70 <strcasecmp@plt-0x10>:
  400c70:	ff 35 92 43 20 00    	pushq  0x204392(%rip)        # 605008 <_GLOBAL_OFFSET_TABLE_+0x8>
  400c76:	ff 25 94 43 20 00    	jmpq   *0x204394(%rip)        # 605010 <_GLOBAL_OFFSET_TABLE_+0x10>
  400c7c:	0f 1f 40 00          	nopl   0x0(%rax)

0000000000400c80 <strcasecmp@plt>:
  400c80:	ff 25 92 43 20 00    	jmpq   *0x204392(%rip)        # 605018 <_GLOBAL_OFFSET_TABLE_+0x18>
  400c86:	68 00 00 00 00       	pushq  $0x0
  400c8b:	e9 e0 ff ff ff       	jmpq   400c70 <_init+0x28>

0000000000400c90 <__errno_location@plt>:
  400c90:	ff 25 8a 43 20 00    	jmpq   *0x20438a(%rip)        # 605020 <_GLOBAL_OFFSET_TABLE_+0x20>
  400c96:	68 01 00 00 00       	pushq  $0x1
  400c9b:	e9 d0 ff ff ff       	jmpq   400c70 <_init+0x28>

0000000000400ca0 <srandom@plt>:
  400ca0:	ff 25 82 43 20 00    	jmpq   *0x204382(%rip)        # 605028 <_GLOBAL_OFFSET_TABLE_+0x28>
  400ca6:	68 02 00 00 00       	pushq  $0x2
  400cab:	e9 c0 ff ff ff       	jmpq   400c70 <_init+0x28>

0000000000400cb0 <strncmp@plt>:
  400cb0:	ff 25 7a 43 20 00    	jmpq   *0x20437a(%rip)        # 605030 <_GLOBAL_OFFSET_TABLE_+0x30>
  400cb6:	68 03 00 00 00       	pushq  $0x3
  400cbb:	e9 b0 ff ff ff       	jmpq   400c70 <_init+0x28>

0000000000400cc0 <strcpy@plt>:
  400cc0:	ff 25 72 43 20 00    	jmpq   *0x204372(%rip)        # 605038 <_GLOBAL_OFFSET_TABLE_+0x38>
  400cc6:	68 04 00 00 00       	pushq  $0x4
  400ccb:	e9 a0 ff ff ff       	jmpq   400c70 <_init+0x28>

0000000000400cd0 <puts@plt>:
  400cd0:	ff 25 6a 43 20 00    	jmpq   *0x20436a(%rip)        # 605040 <_GLOBAL_OFFSET_TABLE_+0x40>
  400cd6:	68 05 00 00 00       	pushq  $0x5
  400cdb:	e9 90 ff ff ff       	jmpq   400c70 <_init+0x28>

0000000000400ce0 <write@plt>:
  400ce0:	ff 25 62 43 20 00    	jmpq   *0x204362(%rip)        # 605048 <_GLOBAL_OFFSET_TABLE_+0x48>
  400ce6:	68 06 00 00 00       	pushq  $0x6
  400ceb:	e9 80 ff ff ff       	jmpq   400c70 <_init+0x28>

0000000000400cf0 <__stack_chk_fail@plt>:
  400cf0:	ff 25 5a 43 20 00    	jmpq   *0x20435a(%rip)        # 605050 <_GLOBAL_OFFSET_TABLE_+0x50>
  400cf6:	68 07 00 00 00       	pushq  $0x7
  400cfb:	e9 70 ff ff ff       	jmpq   400c70 <_init+0x28>

0000000000400d00 <mmap@plt>:
  400d00:	ff 25 52 43 20 00    	jmpq   *0x204352(%rip)        # 605058 <_GLOBAL_OFFSET_TABLE_+0x58>
  400d06:	68 08 00 00 00       	pushq  $0x8
  400d0b:	e9 60 ff ff ff       	jmpq   400c70 <_init+0x28>

0000000000400d10 <memset@plt>:
  400d10:	ff 25 4a 43 20 00    	jmpq   *0x20434a(%rip)        # 605060 <_GLOBAL_OFFSET_TABLE_+0x60>
  400d16:	68 09 00 00 00       	pushq  $0x9
  400d1b:	e9 50 ff ff ff       	jmpq   400c70 <_init+0x28>

0000000000400d20 <alarm@plt>:
  400d20:	ff 25 42 43 20 00    	jmpq   *0x204342(%rip)        # 605068 <_GLOBAL_OFFSET_TABLE_+0x68>
  400d26:	68 0a 00 00 00       	pushq  $0xa
  400d2b:	e9 40 ff ff ff       	jmpq   400c70 <_init+0x28>

0000000000400d30 <close@plt>:
  400d30:	ff 25 3a 43 20 00    	jmpq   *0x20433a(%rip)        # 605070 <_GLOBAL_OFFSET_TABLE_+0x70>
  400d36:	68 0b 00 00 00       	pushq  $0xb
  400d3b:	e9 30 ff ff ff       	jmpq   400c70 <_init+0x28>

0000000000400d40 <read@plt>:
  400d40:	ff 25 32 43 20 00    	jmpq   *0x204332(%rip)        # 605078 <_GLOBAL_OFFSET_TABLE_+0x78>
  400d46:	68 0c 00 00 00       	pushq  $0xc
  400d4b:	e9 20 ff ff ff       	jmpq   400c70 <_init+0x28>

0000000000400d50 <__libc_start_main@plt>:
  400d50:	ff 25 2a 43 20 00    	jmpq   *0x20432a(%rip)        # 605080 <_GLOBAL_OFFSET_TABLE_+0x80>
  400d56:	68 0d 00 00 00       	pushq  $0xd
  400d5b:	e9 10 ff ff ff       	jmpq   400c70 <_init+0x28>

0000000000400d60 <signal@plt>:
  400d60:	ff 25 22 43 20 00    	jmpq   *0x204322(%rip)        # 605088 <_GLOBAL_OFFSET_TABLE_+0x88>
  400d66:	68 0e 00 00 00       	pushq  $0xe
  400d6b:	e9 00 ff ff ff       	jmpq   400c70 <_init+0x28>

0000000000400d70 <gethostbyname@plt>:
  400d70:	ff 25 1a 43 20 00    	jmpq   *0x20431a(%rip)        # 605090 <_GLOBAL_OFFSET_TABLE_+0x90>
  400d76:	68 0f 00 00 00       	pushq  $0xf
  400d7b:	e9 f0 fe ff ff       	jmpq   400c70 <_init+0x28>

0000000000400d80 <__memmove_chk@plt>:
  400d80:	ff 25 12 43 20 00    	jmpq   *0x204312(%rip)        # 605098 <_GLOBAL_OFFSET_TABLE_+0x98>
  400d86:	68 10 00 00 00       	pushq  $0x10
  400d8b:	e9 e0 fe ff ff       	jmpq   400c70 <_init+0x28>

0000000000400d90 <strtol@plt>:
  400d90:	ff 25 0a 43 20 00    	jmpq   *0x20430a(%rip)        # 6050a0 <_GLOBAL_OFFSET_TABLE_+0xa0>
  400d96:	68 11 00 00 00       	pushq  $0x11
  400d9b:	e9 d0 fe ff ff       	jmpq   400c70 <_init+0x28>

0000000000400da0 <memcpy@plt>:
  400da0:	ff 25 02 43 20 00    	jmpq   *0x204302(%rip)        # 6050a8 <_GLOBAL_OFFSET_TABLE_+0xa8>
  400da6:	68 12 00 00 00       	pushq  $0x12
  400dab:	e9 c0 fe ff ff       	jmpq   400c70 <_init+0x28>

0000000000400db0 <time@plt>:
  400db0:	ff 25 fa 42 20 00    	jmpq   *0x2042fa(%rip)        # 6050b0 <_GLOBAL_OFFSET_TABLE_+0xb0>
  400db6:	68 13 00 00 00       	pushq  $0x13
  400dbb:	e9 b0 fe ff ff       	jmpq   400c70 <_init+0x28>

0000000000400dc0 <random@plt>:
  400dc0:	ff 25 f2 42 20 00    	jmpq   *0x2042f2(%rip)        # 6050b8 <_GLOBAL_OFFSET_TABLE_+0xb8>
  400dc6:	68 14 00 00 00       	pushq  $0x14
  400dcb:	e9 a0 fe ff ff       	jmpq   400c70 <_init+0x28>

0000000000400dd0 <_IO_getc@plt>:
  400dd0:	ff 25 ea 42 20 00    	jmpq   *0x2042ea(%rip)        # 6050c0 <_GLOBAL_OFFSET_TABLE_+0xc0>
  400dd6:	68 15 00 00 00       	pushq  $0x15
  400ddb:	e9 90 fe ff ff       	jmpq   400c70 <_init+0x28>

0000000000400de0 <__isoc99_sscanf@plt>:
  400de0:	ff 25 e2 42 20 00    	jmpq   *0x2042e2(%rip)        # 6050c8 <_GLOBAL_OFFSET_TABLE_+0xc8>
  400de6:	68 16 00 00 00       	pushq  $0x16
  400deb:	e9 80 fe ff ff       	jmpq   400c70 <_init+0x28>

0000000000400df0 <munmap@plt>:
  400df0:	ff 25 da 42 20 00    	jmpq   *0x2042da(%rip)        # 6050d0 <_GLOBAL_OFFSET_TABLE_+0xd0>
  400df6:	68 17 00 00 00       	pushq  $0x17
  400dfb:	e9 70 fe ff ff       	jmpq   400c70 <_init+0x28>

0000000000400e00 <__printf_chk@plt>:
  400e00:	ff 25 d2 42 20 00    	jmpq   *0x2042d2(%rip)        # 6050d8 <_GLOBAL_OFFSET_TABLE_+0xd8>
  400e06:	68 18 00 00 00       	pushq  $0x18
  400e0b:	e9 60 fe ff ff       	jmpq   400c70 <_init+0x28>

0000000000400e10 <fopen@plt>:
  400e10:	ff 25 ca 42 20 00    	jmpq   *0x2042ca(%rip)        # 6050e0 <_GLOBAL_OFFSET_TABLE_+0xe0>
  400e16:	68 19 00 00 00       	pushq  $0x19
  400e1b:	e9 50 fe ff ff       	jmpq   400c70 <_init+0x28>

0000000000400e20 <getopt@plt>:
  400e20:	ff 25 c2 42 20 00    	jmpq   *0x2042c2(%rip)        # 6050e8 <_GLOBAL_OFFSET_TABLE_+0xe8>
  400e26:	68 1a 00 00 00       	pushq  $0x1a
  400e2b:	e9 40 fe ff ff       	jmpq   400c70 <_init+0x28>

0000000000400e30 <strtoul@plt>:
  400e30:	ff 25 ba 42 20 00    	jmpq   *0x2042ba(%rip)        # 6050f0 <_GLOBAL_OFFSET_TABLE_+0xf0>
  400e36:	68 1b 00 00 00       	pushq  $0x1b
  400e3b:	e9 30 fe ff ff       	jmpq   400c70 <_init+0x28>

0000000000400e40 <gethostname@plt>:
  400e40:	ff 25 b2 42 20 00    	jmpq   *0x2042b2(%rip)        # 6050f8 <_GLOBAL_OFFSET_TABLE_+0xf8>
  400e46:	68 1c 00 00 00       	pushq  $0x1c
  400e4b:	e9 20 fe ff ff       	jmpq   400c70 <_init+0x28>

0000000000400e50 <exit@plt>:
  400e50:	ff 25 aa 42 20 00    	jmpq   *0x2042aa(%rip)        # 605100 <_GLOBAL_OFFSET_TABLE_+0x100>
  400e56:	68 1d 00 00 00       	pushq  $0x1d
  400e5b:	e9 10 fe ff ff       	jmpq   400c70 <_init+0x28>

0000000000400e60 <connect@plt>:
  400e60:	ff 25 a2 42 20 00    	jmpq   *0x2042a2(%rip)        # 605108 <_GLOBAL_OFFSET_TABLE_+0x108>
  400e66:	68 1e 00 00 00       	pushq  $0x1e
  400e6b:	e9 00 fe ff ff       	jmpq   400c70 <_init+0x28>

0000000000400e70 <__fprintf_chk@plt>:
  400e70:	ff 25 9a 42 20 00    	jmpq   *0x20429a(%rip)        # 605110 <_GLOBAL_OFFSET_TABLE_+0x110>
  400e76:	68 1f 00 00 00       	pushq  $0x1f
  400e7b:	e9 f0 fd ff ff       	jmpq   400c70 <_init+0x28>

0000000000400e80 <__sprintf_chk@plt>:
  400e80:	ff 25 92 42 20 00    	jmpq   *0x204292(%rip)        # 605118 <_GLOBAL_OFFSET_TABLE_+0x118>
  400e86:	68 20 00 00 00       	pushq  $0x20
  400e8b:	e9 e0 fd ff ff       	jmpq   400c70 <_init+0x28>

0000000000400e90 <socket@plt>:
  400e90:	ff 25 8a 42 20 00    	jmpq   *0x20428a(%rip)        # 605120 <_GLOBAL_OFFSET_TABLE_+0x120>
  400e96:	68 21 00 00 00       	pushq  $0x21
  400e9b:	e9 d0 fd ff ff       	jmpq   400c70 <_init+0x28>

Disassembly of section .plt.got:

0000000000400ea0 <.plt.got>:
  400ea0:	ff 25 52 41 20 00    	jmpq   *0x204152(%rip)        # 604ff8 <_DYNAMIC+0x1d0>
  400ea6:	66 90                	xchg   %ax,%ax

Disassembly of section .text:

0000000000400eb0 <_start>:
  400eb0:	31 ed                	xor    %ebp,%ebp
  400eb2:	49 89 d1             	mov    %rdx,%r9
  400eb5:	5e                   	pop    %rsi
  400eb6:	48 89 e2             	mov    %rsp,%rdx
  400eb9:	48 83 e4 f0          	and    $0xfffffffffffffff0,%rsp
  400ebd:	50                   	push   %rax
  400ebe:	54                   	push   %rsp
  400ebf:	49 c7 c0 60 2f 40 00 	mov    $0x402f60,%r8
  400ec6:	48 c7 c1 f0 2e 40 00 	mov    $0x402ef0,%rcx
  400ecd:	48 c7 c7 ba 11 40 00 	mov    $0x4011ba,%rdi
  400ed4:	e8 77 fe ff ff       	callq  400d50 <__libc_start_main@plt>
  400ed9:	f4                   	hlt    
  400eda:	66 0f 1f 44 00 00    	nopw   0x0(%rax,%rax,1)

0000000000400ee0 <deregister_tm_clones>:
  400ee0:	b8 b7 54 60 00       	mov    $0x6054b7,%eax
  400ee5:	55                   	push   %rbp
  400ee6:	48 2d b0 54 60 00    	sub    $0x6054b0,%rax
  400eec:	48 83 f8 0e          	cmp    $0xe,%rax
  400ef0:	48 89 e5             	mov    %rsp,%rbp
  400ef3:	76 1b                	jbe    400f10 <deregister_tm_clones+0x30>
  400ef5:	b8 00 00 00 00       	mov    $0x0,%eax
  400efa:	48 85 c0             	test   %rax,%rax
  400efd:	74 11                	je     400f10 <deregister_tm_clones+0x30>
  400eff:	5d                   	pop    %rbp
  400f00:	bf b0 54 60 00       	mov    $0x6054b0,%edi
  400f05:	ff e0                	jmpq   *%rax
  400f07:	66 0f 1f 84 00 00 00 	nopw   0x0(%rax,%rax,1)
  400f0e:	00 00 
  400f10:	5d                   	pop    %rbp
  400f11:	c3                   	retq   
  400f12:	0f 1f 40 00          	nopl   0x0(%rax)
  400f16:	66 2e 0f 1f 84 00 00 	nopw   %cs:0x0(%rax,%rax,1)
  400f1d:	00 00 00 

0000000000400f20 <register_tm_clones>:
  400f20:	be b0 54 60 00       	mov    $0x6054b0,%esi
  400f25:	55                   	push   %rbp
  400f26:	48 81 ee b0 54 60 00 	sub    $0x6054b0,%rsi
  400f2d:	48 c1 fe 03          	sar    $0x3,%rsi
  400f31:	48 89 e5             	mov    %rsp,%rbp
  400f34:	48 89 f0             	mov    %rsi,%rax
  400f37:	48 c1 e8 3f          	shr    $0x3f,%rax
  400f3b:	48 01 c6             	add    %rax,%rsi
  400f3e:	48 d1 fe             	sar    %rsi
  400f41:	74 15                	je     400f58 <register_tm_clones+0x38>
  400f43:	b8 00 00 00 00       	mov    $0x0,%eax
  400f48:	48 85 c0             	test   %rax,%rax
  400f4b:	74 0b                	je     400f58 <register_tm_clones+0x38>
  400f4d:	5d                   	pop    %rbp
  400f4e:	bf b0 54 60 00       	mov    $0x6054b0,%edi
  400f53:	ff e0                	jmpq   *%rax
  400f55:	0f 1f 00             	nopl   (%rax)
  400f58:	5d                   	pop    %rbp
  400f59:	c3                   	retq   
  400f5a:	66 0f 1f 44 00 00    	nopw   0x0(%rax,%rax,1)

0000000000400f60 <__do_global_dtors_aux>:
  400f60:	80 3d 81 45 20 00 00 	cmpb   $0x0,0x204581(%rip)        # 6054e8 <completed.7585>
  400f67:	75 11                	jne    400f7a <__do_global_dtors_aux+0x1a>
  400f69:	55                   	push   %rbp
  400f6a:	48 89 e5             	mov    %rsp,%rbp
  400f6d:	e8 6e ff ff ff       	callq  400ee0 <deregister_tm_clones>
  400f72:	5d                   	pop    %rbp
  400f73:	c6 05 6e 45 20 00 01 	movb   $0x1,0x20456e(%rip)        # 6054e8 <completed.7585>
  400f7a:	f3 c3                	repz retq 
  400f7c:	0f 1f 40 00          	nopl   0x0(%rax)

0000000000400f80 <frame_dummy>:
  400f80:	bf 20 4e 60 00       	mov    $0x604e20,%edi
  400f85:	48 83 3f 00          	cmpq   $0x0,(%rdi)
  400f89:	75 05                	jne    400f90 <frame_dummy+0x10>
  400f8b:	eb 93                	jmp    400f20 <register_tm_clones>
  400f8d:	0f 1f 00             	nopl   (%rax)
  400f90:	b8 00 00 00 00       	mov    $0x0,%eax
  400f95:	48 85 c0             	test   %rax,%rax
  400f98:	74 f1                	je     400f8b <frame_dummy+0xb>
  400f9a:	55                   	push   %rbp
  400f9b:	48 89 e5             	mov    %rsp,%rbp
  400f9e:	ff d0                	callq  *%rax
  400fa0:	5d                   	pop    %rbp
  400fa1:	e9 7a ff ff ff       	jmpq   400f20 <register_tm_clones>

0000000000400fa6 <usage>:
  400fa6:	48 83 ec 08          	sub    $0x8,%rsp
  400faa:	48 89 fa             	mov    %rdi,%rdx
  400fad:	83 3d 74 45 20 00 00 	cmpl   $0x0,0x204574(%rip)        # 605528 <is_checker>
  400fb4:	74 3e                	je     400ff4 <usage+0x4e>
  400fb6:	be 78 2f 40 00       	mov    $0x402f78,%esi
  400fbb:	bf 01 00 00 00       	mov    $0x1,%edi
  400fc0:	b8 00 00 00 00       	mov    $0x0,%eax
  400fc5:	e8 36 fe ff ff       	callq  400e00 <__printf_chk@plt>
  400fca:	bf b0 2f 40 00       	mov    $0x402fb0,%edi
  400fcf:	e8 fc fc ff ff       	callq  400cd0 <puts@plt>
  400fd4:	bf 28 31 40 00       	mov    $0x403128,%edi
  400fd9:	e8 f2 fc ff ff       	callq  400cd0 <puts@plt>
  400fde:	bf d8 2f 40 00       	mov    $0x402fd8,%edi
  400fe3:	e8 e8 fc ff ff       	callq  400cd0 <puts@plt>
  400fe8:	bf 42 31 40 00       	mov    $0x403142,%edi
  400fed:	e8 de fc ff ff       	callq  400cd0 <puts@plt>
  400ff2:	eb 32                	jmp    401026 <usage+0x80>
  400ff4:	be 5e 31 40 00       	mov    $0x40315e,%esi
  400ff9:	bf 01 00 00 00       	mov    $0x1,%edi
  400ffe:	b8 00 00 00 00       	mov    $0x0,%eax
  401003:	e8 f8 fd ff ff       	callq  400e00 <__printf_chk@plt>
  401008:	bf 00 30 40 00       	mov    $0x403000,%edi
  40100d:	e8 be fc ff ff       	callq  400cd0 <puts@plt>
  401012:	bf 28 30 40 00       	mov    $0x403028,%edi
  401017:	e8 b4 fc ff ff       	callq  400cd0 <puts@plt>
  40101c:	bf 7c 31 40 00       	mov    $0x40317c,%edi
  401021:	e8 aa fc ff ff       	callq  400cd0 <puts@plt>
  401026:	bf 00 00 00 00       	mov    $0x0,%edi
  40102b:	e8 20 fe ff ff       	callq  400e50 <exit@plt>

0000000000401030 <initialize_target>:
  401030:	55                   	push   %rbp
  401031:	53                   	push   %rbx
  401032:	48 81 ec 18 21 00 00 	sub    $0x2118,%rsp
  401039:	89 f5                	mov    %esi,%ebp
  40103b:	64 48 8b 04 25 28 00 	mov    %fs:0x28,%rax
  401042:	00 00 
  401044:	48 89 84 24 08 21 00 	mov    %rax,0x2108(%rsp)
  40104b:	00 
  40104c:	31 c0                	xor    %eax,%eax
  40104e:	89 3d c4 44 20 00    	mov    %edi,0x2044c4(%rip)        # 605518 <check_level>
  401054:	8b 3d 0e 41 20 00    	mov    0x20410e(%rip),%edi        # 605168 <target_id>
  40105a:	e8 6f 1e 00 00       	callq  402ece <gencookie>
  40105f:	89 05 bf 44 20 00    	mov    %eax,0x2044bf(%rip)        # 605524 <cookie>
  401065:	89 c7                	mov    %eax,%edi
  401067:	e8 62 1e 00 00       	callq  402ece <gencookie>
  40106c:	89 05 ae 44 20 00    	mov    %eax,0x2044ae(%rip)        # 605520 <authkey>
  401072:	8b 05 f0 40 20 00    	mov    0x2040f0(%rip),%eax        # 605168 <target_id>
  401078:	8d 78 01             	lea    0x1(%rax),%edi
  40107b:	e8 20 fc ff ff       	callq  400ca0 <srandom@plt>
  401080:	e8 3b fd ff ff       	callq  400dc0 <random@plt>
  401085:	89 c7                	mov    %eax,%edi
  401087:	e8 08 03 00 00       	callq  401394 <scramble>
  40108c:	89 c3                	mov    %eax,%ebx
  40108e:	85 ed                	test   %ebp,%ebp
  401090:	74 18                	je     4010aa <initialize_target+0x7a>
  401092:	bf 00 00 00 00       	mov    $0x0,%edi
  401097:	e8 14 fd ff ff       	callq  400db0 <time@plt>
  40109c:	89 c7                	mov    %eax,%edi
  40109e:	e8 fd fb ff ff       	callq  400ca0 <srandom@plt>
  4010a3:	e8 18 fd ff ff       	callq  400dc0 <random@plt>
  4010a8:	eb 05                	jmp    4010af <initialize_target+0x7f>
  4010aa:	b8 00 00 00 00       	mov    $0x0,%eax
  4010af:	01 c3                	add    %eax,%ebx
  4010b1:	0f b7 db             	movzwl %bx,%ebx
  4010b4:	8d 04 dd 00 01 00 00 	lea    0x100(,%rbx,8),%eax
  4010bb:	89 c0                	mov    %eax,%eax
  4010bd:	48 89 05 dc 43 20 00 	mov    %rax,0x2043dc(%rip)        # 6054a0 <buf_offset>
  4010c4:	c6 05 7d 50 20 00 63 	movb   $0x63,0x20507d(%rip)        # 606148 <target_prefix>
  4010cb:	83 3d d6 43 20 00 00 	cmpl   $0x0,0x2043d6(%rip)        # 6054a8 <notify>
  4010d2:	0f 84 c0 00 00 00    	je     401198 <initialize_target+0x168>
  4010d8:	83 3d 49 44 20 00 00 	cmpl   $0x0,0x204449(%rip)        # 605528 <is_checker>
  4010df:	0f 85 b3 00 00 00    	jne    401198 <initialize_target+0x168>
  4010e5:	be 00 01 00 00       	mov    $0x100,%esi
  4010ea:	48 89 e7             	mov    %rsp,%rdi
  4010ed:	e8 4e fd ff ff       	callq  400e40 <gethostname@plt>
  4010f2:	85 c0                	test   %eax,%eax
  4010f4:	74 25                	je     40111b <initialize_target+0xeb>
  4010f6:	bf 58 30 40 00       	mov    $0x403058,%edi
  4010fb:	e8 d0 fb ff ff       	callq  400cd0 <puts@plt>
  401100:	bf 08 00 00 00       	mov    $0x8,%edi
  401105:	e8 46 fd ff ff       	callq  400e50 <exit@plt>
  40110a:	48 89 e6             	mov    %rsp,%rsi
  40110d:	e8 6e fb ff ff       	callq  400c80 <strcasecmp@plt>
  401112:	85 c0                	test   %eax,%eax
  401114:	74 21                	je     401137 <initialize_target+0x107>
  401116:	83 c3 01             	add    $0x1,%ebx
  401119:	eb 05                	jmp    401120 <initialize_target+0xf0>
  40111b:	bb 00 00 00 00       	mov    $0x0,%ebx
  401120:	48 63 c3             	movslq %ebx,%rax
  401123:	48 8b 3c c5 80 51 60 	mov    0x605180(,%rax,8),%rdi
  40112a:	00 
  40112b:	48 85 ff             	test   %rdi,%rdi
  40112e:	75 da                	jne    40110a <initialize_target+0xda>
  401130:	b8 00 00 00 00       	mov    $0x0,%eax
  401135:	eb 05                	jmp    40113c <initialize_target+0x10c>
  401137:	b8 01 00 00 00       	mov    $0x1,%eax
  40113c:	85 c0                	test   %eax,%eax
  40113e:	74 21                	je     401161 <initialize_target+0x131>
  401140:	48 89 e2             	mov    %rsp,%rdx
  401143:	be 90 30 40 00       	mov    $0x403090,%esi
  401148:	bf 01 00 00 00       	mov    $0x1,%edi
  40114d:	b8 00 00 00 00       	mov    $0x0,%eax
  401152:	e8 a9 fc ff ff       	callq  400e00 <__printf_chk@plt>
  401157:	bf 08 00 00 00       	mov    $0x8,%edi
  40115c:	e8 ef fc ff ff       	callq  400e50 <exit@plt>
  401161:	48 8d bc 24 00 01 00 	lea    0x100(%rsp),%rdi
  401168:	00 
  401169:	e8 a8 1a 00 00       	callq  402c16 <init_driver>
  40116e:	85 c0                	test   %eax,%eax
  401170:	79 26                	jns    401198 <initialize_target+0x168>
  401172:	48 8d 94 24 00 01 00 	lea    0x100(%rsp),%rdx
  401179:	00 
  40117a:	be d0 30 40 00       	mov    $0x4030d0,%esi
  40117f:	bf 01 00 00 00       	mov    $0x1,%edi
  401184:	b8 00 00 00 00       	mov    $0x0,%eax
  401189:	e8 72 fc ff ff       	callq  400e00 <__printf_chk@plt>
  40118e:	bf 08 00 00 00       	mov    $0x8,%edi
  401193:	e8 b8 fc ff ff       	callq  400e50 <exit@plt>
  401198:	48 8b 84 24 08 21 00 	mov    0x2108(%rsp),%rax
  40119f:	00 
  4011a0:	64 48 33 04 25 28 00 	xor    %fs:0x28,%rax
  4011a7:	00 00 
  4011a9:	74 05                	je     4011b0 <initialize_target+0x180>
  4011ab:	e8 40 fb ff ff       	callq  400cf0 <__stack_chk_fail@plt>
  4011b0:	48 81 c4 18 21 00 00 	add    $0x2118,%rsp
  4011b7:	5b                   	pop    %rbx
  4011b8:	5d                   	pop    %rbp
  4011b9:	c3                   	retq   

00000000004011ba <main>:
  4011ba:	41 56                	push   %r14
  4011bc:	41 55                	push   %r13
  4011be:	41 54                	push   %r12
  4011c0:	55                   	push   %rbp
  4011c1:	53                   	push   %rbx
  4011c2:	41 89 fc             	mov    %edi,%r12d
  4011c5:	48 89 f3             	mov    %rsi,%rbx
  4011c8:	be 51 1f 40 00       	mov    $0x401f51,%esi
  4011cd:	bf 0b 00 00 00       	mov    $0xb,%edi
  4011d2:	e8 89 fb ff ff       	callq  400d60 <signal@plt>
  4011d7:	be 03 1f 40 00       	mov    $0x401f03,%esi
  4011dc:	bf 07 00 00 00       	mov    $0x7,%edi
  4011e1:	e8 7a fb ff ff       	callq  400d60 <signal@plt>
  4011e6:	be 9f 1f 40 00       	mov    $0x401f9f,%esi
  4011eb:	bf 04 00 00 00       	mov    $0x4,%edi
  4011f0:	e8 6b fb ff ff       	callq  400d60 <signal@plt>
  4011f5:	83 3d 2c 43 20 00 00 	cmpl   $0x0,0x20432c(%rip)        # 605528 <is_checker>
  4011fc:	74 20                	je     40121e <main+0x64>
  4011fe:	be ed 1f 40 00       	mov    $0x401fed,%esi
  401203:	bf 0e 00 00 00       	mov    $0xe,%edi
  401208:	e8 53 fb ff ff       	callq  400d60 <signal@plt>
  40120d:	bf 05 00 00 00       	mov    $0x5,%edi
  401212:	e8 09 fb ff ff       	callq  400d20 <alarm@plt>
  401217:	bd 9a 31 40 00       	mov    $0x40319a,%ebp
  40121c:	eb 05                	jmp    401223 <main+0x69>
  40121e:	bd 95 31 40 00       	mov    $0x403195,%ebp
  401223:	48 8b 05 96 42 20 00 	mov    0x204296(%rip),%rax        # 6054c0 <stdin@@GLIBC_2.2.5>
  40122a:	48 89 05 df 42 20 00 	mov    %rax,0x2042df(%rip)        # 605510 <infile>
  401231:	41 bd 00 00 00 00    	mov    $0x0,%r13d
  401237:	41 be 00 00 00 00    	mov    $0x0,%r14d
  40123d:	e9 c6 00 00 00       	jmpq   401308 <main+0x14e>
  401242:	83 e8 61             	sub    $0x61,%eax
  401245:	3c 10                	cmp    $0x10,%al
  401247:	0f 87 9c 00 00 00    	ja     4012e9 <main+0x12f>
  40124d:	0f b6 c0             	movzbl %al,%eax
  401250:	ff 24 c5 e0 31 40 00 	jmpq   *0x4031e0(,%rax,8)
  401257:	48 8b 3b             	mov    (%rbx),%rdi
  40125a:	e8 47 fd ff ff       	callq  400fa6 <usage>
  40125f:	be 35 34 40 00       	mov    $0x403435,%esi
  401264:	48 8b 3d 5d 42 20 00 	mov    0x20425d(%rip),%rdi        # 6054c8 <optarg@@GLIBC_2.2.5>
  40126b:	e8 a0 fb ff ff       	callq  400e10 <fopen@plt>
  401270:	48 89 05 99 42 20 00 	mov    %rax,0x204299(%rip)        # 605510 <infile>
  401277:	48 85 c0             	test   %rax,%rax
  40127a:	0f 85 88 00 00 00    	jne    401308 <main+0x14e>
  401280:	48 8b 0d 41 42 20 00 	mov    0x204241(%rip),%rcx        # 6054c8 <optarg@@GLIBC_2.2.5>
  401287:	ba a2 31 40 00       	mov    $0x4031a2,%edx
  40128c:	be 01 00 00 00       	mov    $0x1,%esi
  401291:	48 8b 3d 48 42 20 00 	mov    0x204248(%rip),%rdi        # 6054e0 <stderr@@GLIBC_2.2.5>
  401298:	e8 d3 fb ff ff       	callq  400e70 <__fprintf_chk@plt>
  40129d:	b8 01 00 00 00       	mov    $0x1,%eax
  4012a2:	e9 e4 00 00 00       	jmpq   40138b <main+0x1d1>
  4012a7:	ba 10 00 00 00       	mov    $0x10,%edx
  4012ac:	be 00 00 00 00       	mov    $0x0,%esi
  4012b1:	48 8b 3d 10 42 20 00 	mov    0x204210(%rip),%rdi        # 6054c8 <optarg@@GLIBC_2.2.5>
  4012b8:	e8 73 fb ff ff       	callq  400e30 <strtoul@plt>
  4012bd:	41 89 c6             	mov    %eax,%r14d
  4012c0:	eb 46                	jmp    401308 <main+0x14e>
  4012c2:	ba 0a 00 00 00       	mov    $0xa,%edx
  4012c7:	be 00 00 00 00       	mov    $0x0,%esi
  4012cc:	48 8b 3d f5 41 20 00 	mov    0x2041f5(%rip),%rdi        # 6054c8 <optarg@@GLIBC_2.2.5>
  4012d3:	e8 b8 fa ff ff       	callq  400d90 <strtol@plt>
  4012d8:	41 89 c5             	mov    %eax,%r13d
  4012db:	eb 2b                	jmp    401308 <main+0x14e>
  4012dd:	c7 05 c1 41 20 00 00 	movl   $0x0,0x2041c1(%rip)        # 6054a8 <notify>
  4012e4:	00 00 00 
  4012e7:	eb 1f                	jmp    401308 <main+0x14e>
  4012e9:	0f be d2             	movsbl %dl,%edx
  4012ec:	be bf 31 40 00       	mov    $0x4031bf,%esi
  4012f1:	bf 01 00 00 00       	mov    $0x1,%edi
  4012f6:	b8 00 00 00 00       	mov    $0x0,%eax
  4012fb:	e8 00 fb ff ff       	callq  400e00 <__printf_chk@plt>
  401300:	48 8b 3b             	mov    (%rbx),%rdi
  401303:	e8 9e fc ff ff       	callq  400fa6 <usage>
  401308:	48 89 ea             	mov    %rbp,%rdx
  40130b:	48 89 de             	mov    %rbx,%rsi
  40130e:	44 89 e7             	mov    %r12d,%edi
  401311:	e8 0a fb ff ff       	callq  400e20 <getopt@plt>
  401316:	89 c2                	mov    %eax,%edx
  401318:	3c ff                	cmp    $0xff,%al
  40131a:	0f 85 22 ff ff ff    	jne    401242 <main+0x88>
  401320:	be 00 00 00 00       	mov    $0x0,%esi
  401325:	44 89 ef             	mov    %r13d,%edi
  401328:	e8 03 fd ff ff       	callq  401030 <initialize_target>
  40132d:	83 3d f4 41 20 00 00 	cmpl   $0x0,0x2041f4(%rip)        # 605528 <is_checker>
  401334:	74 2a                	je     401360 <main+0x1a6>
  401336:	44 3b 35 e3 41 20 00 	cmp    0x2041e3(%rip),%r14d        # 605520 <authkey>
  40133d:	74 21                	je     401360 <main+0x1a6>
  40133f:	44 89 f2             	mov    %r14d,%edx
  401342:	be f8 30 40 00       	mov    $0x4030f8,%esi
  401347:	bf 01 00 00 00       	mov    $0x1,%edi
  40134c:	b8 00 00 00 00       	mov    $0x0,%eax
  401351:	e8 aa fa ff ff       	callq  400e00 <__printf_chk@plt>
  401356:	b8 00 00 00 00       	mov    $0x0,%eax
  40135b:	e8 3f 08 00 00       	callq  401b9f <check_fail>
  401360:	8b 15 be 41 20 00    	mov    0x2041be(%rip),%edx        # 605524 <cookie>
  401366:	be d2 31 40 00       	mov    $0x4031d2,%esi
  40136b:	bf 01 00 00 00       	mov    $0x1,%edi
  401370:	b8 00 00 00 00       	mov    $0x0,%eax
  401375:	e8 86 fa ff ff       	callq  400e00 <__printf_chk@plt>
  40137a:	48 8b 3d 1f 41 20 00 	mov    0x20411f(%rip),%rdi        # 6054a0 <buf_offset>
  401381:	e8 67 0d 00 00       	callq  4020ed <stable_launch>
  401386:	b8 00 00 00 00       	mov    $0x0,%eax
  40138b:	5b                   	pop    %rbx
  40138c:	5d                   	pop    %rbp
  40138d:	41 5c                	pop    %r12
  40138f:	41 5d                	pop    %r13
  401391:	41 5e                	pop    %r14
  401393:	c3                   	retq   

0000000000401394 <scramble>:
  401394:	48 83 ec 38          	sub    $0x38,%rsp
  401398:	64 48 8b 04 25 28 00 	mov    %fs:0x28,%rax
  40139f:	00 00 
  4013a1:	48 89 44 24 28       	mov    %rax,0x28(%rsp)
  4013a6:	31 c0                	xor    %eax,%eax
  4013a8:	eb 10                	jmp    4013ba <scramble+0x26>
  4013aa:	69 d0 c7 44 00 00    	imul   $0x44c7,%eax,%edx
  4013b0:	01 fa                	add    %edi,%edx
  4013b2:	89 c1                	mov    %eax,%ecx
  4013b4:	89 14 8c             	mov    %edx,(%rsp,%rcx,4)
  4013b7:	83 c0 01             	add    $0x1,%eax
  4013ba:	83 f8 09             	cmp    $0x9,%eax
  4013bd:	76 eb                	jbe    4013aa <scramble+0x16>
  4013bf:	8b 44 24 08          	mov    0x8(%rsp),%eax
  4013c3:	69 c0 0a bf 00 00    	imul   $0xbf0a,%eax,%eax
  4013c9:	89 44 24 08          	mov    %eax,0x8(%rsp)
  4013cd:	8b 44 24 10          	mov    0x10(%rsp),%eax
  4013d1:	69 c0 bc 16 00 00    	imul   $0x16bc,%eax,%eax
  4013d7:	89 44 24 10          	mov    %eax,0x10(%rsp)
  4013db:	8b 44 24 24          	mov    0x24(%rsp),%eax
  4013df:	69 c0 de 68 00 00    	imul   $0x68de,%eax,%eax
  4013e5:	89 44 24 24          	mov    %eax,0x24(%rsp)
  4013e9:	8b 44 24 0c          	mov    0xc(%rsp),%eax
  4013ed:	69 c0 be 61 00 00    	imul   $0x61be,%eax,%eax
  4013f3:	89 44 24 0c          	mov    %eax,0xc(%rsp)
  4013f7:	8b 44 24 24          	mov    0x24(%rsp),%eax
  4013fb:	69 c0 ae ec 00 00    	imul   $0xecae,%eax,%eax
  401401:	89 44 24 24          	mov    %eax,0x24(%rsp)
  401405:	8b 44 24 10          	mov    0x10(%rsp),%eax
  401409:	69 c0 f5 68 00 00    	imul   $0x68f5,%eax,%eax
  40140f:	89 44 24 10          	mov    %eax,0x10(%rsp)
  401413:	8b 44 24 20          	mov    0x20(%rsp),%eax
  401417:	69 c0 27 7a 00 00    	imul   $0x7a27,%eax,%eax
  40141d:	89 44 24 20          	mov    %eax,0x20(%rsp)
  401421:	8b 44 24 18          	mov    0x18(%rsp),%eax
  401425:	69 c0 0f 93 00 00    	imul   $0x930f,%eax,%eax
  40142b:	89 44 24 18          	mov    %eax,0x18(%rsp)
  40142f:	8b 44 24 20          	mov    0x20(%rsp),%eax
  401433:	69 c0 e2 c2 00 00    	imul   $0xc2e2,%eax,%eax
  401439:	89 44 24 20          	mov    %eax,0x20(%rsp)
  40143d:	8b 44 24 20          	mov    0x20(%rsp),%eax
  401441:	69 c0 0d d8 00 00    	imul   $0xd80d,%eax,%eax
  401447:	89 44 24 20          	mov    %eax,0x20(%rsp)
  40144b:	8b 44 24 10          	mov    0x10(%rsp),%eax
  40144f:	69 c0 52 69 00 00    	imul   $0x6952,%eax,%eax
  401455:	89 44 24 10          	mov    %eax,0x10(%rsp)
  401459:	8b 44 24 1c          	mov    0x1c(%rsp),%eax
  40145d:	69 c0 5b e9 00 00    	imul   $0xe95b,%eax,%eax
  401463:	89 44 24 1c          	mov    %eax,0x1c(%rsp)
  401467:	8b 44 24 20          	mov    0x20(%rsp),%eax
  40146b:	69 c0 a5 fc 00 00    	imul   $0xfca5,%eax,%eax
  401471:	89 44 24 20          	mov    %eax,0x20(%rsp)
  401475:	8b 44 24 24          	mov    0x24(%rsp),%eax
  401479:	69 c0 e8 21 00 00    	imul   $0x21e8,%eax,%eax
  40147f:	89 44 24 24          	mov    %eax,0x24(%rsp)
  401483:	8b 44 24 24          	mov    0x24(%rsp),%eax
  401487:	69 c0 f4 0a 00 00    	imul   $0xaf4,%eax,%eax
  40148d:	89 44 24 24          	mov    %eax,0x24(%rsp)
  401491:	8b 44 24 20          	mov    0x20(%rsp),%eax
  401495:	69 c0 5a b1 00 00    	imul   $0xb15a,%eax,%eax
  40149b:	89 44 24 20          	mov    %eax,0x20(%rsp)
  40149f:	8b 44 24 08          	mov    0x8(%rsp),%eax
  4014a3:	69 c0 bb 0b 00 00    	imul   $0xbbb,%eax,%eax
  4014a9:	89 44 24 08          	mov    %eax,0x8(%rsp)
  4014ad:	8b 44 24 1c          	mov    0x1c(%rsp),%eax
  4014b1:	69 c0 68 0a 00 00    	imul   $0xa68,%eax,%eax
  4014b7:	89 44 24 1c          	mov    %eax,0x1c(%rsp)
  4014bb:	8b 44 24 08          	mov    0x8(%rsp),%eax
  4014bf:	69 c0 f1 c8 00 00    	imul   $0xc8f1,%eax,%eax
  4014c5:	89 44 24 08          	mov    %eax,0x8(%rsp)
  4014c9:	8b 44 24 1c          	mov    0x1c(%rsp),%eax
  4014cd:	69 c0 9e 67 00 00    	imul   $0x679e,%eax,%eax
  4014d3:	89 44 24 1c          	mov    %eax,0x1c(%rsp)
  4014d7:	8b 44 24 14          	mov    0x14(%rsp),%eax
  4014db:	69 c0 69 b8 00 00    	imul   $0xb869,%eax,%eax
  4014e1:	89 44 24 14          	mov    %eax,0x14(%rsp)
  4014e5:	8b 44 24 24          	mov    0x24(%rsp),%eax
  4014e9:	69 c0 46 b3 00 00    	imul   $0xb346,%eax,%eax
  4014ef:	89 44 24 24          	mov    %eax,0x24(%rsp)
  4014f3:	8b 44 24 04          	mov    0x4(%rsp),%eax
  4014f7:	69 c0 15 b6 00 00    	imul   $0xb615,%eax,%eax
  4014fd:	89 44 24 04          	mov    %eax,0x4(%rsp)
  401501:	8b 44 24 24          	mov    0x24(%rsp),%eax
  401505:	69 c0 99 67 00 00    	imul   $0x6799,%eax,%eax
  40150b:	89 44 24 24          	mov    %eax,0x24(%rsp)
  40150f:	8b 44 24 18          	mov    0x18(%rsp),%eax
  401513:	69 c0 e3 40 00 00    	imul   $0x40e3,%eax,%eax
  401519:	89 44 24 18          	mov    %eax,0x18(%rsp)
  40151d:	8b 44 24 04          	mov    0x4(%rsp),%eax
  401521:	69 c0 42 4a 00 00    	imul   $0x4a42,%eax,%eax
  401527:	89 44 24 04          	mov    %eax,0x4(%rsp)
  40152b:	8b 44 24 14          	mov    0x14(%rsp),%eax
  40152f:	69 c0 a2 0d 00 00    	imul   $0xda2,%eax,%eax
  401535:	89 44 24 14          	mov    %eax,0x14(%rsp)
  401539:	8b 44 24 1c          	mov    0x1c(%rsp),%eax
  40153d:	69 c0 ef 89 00 00    	imul   $0x89ef,%eax,%eax
  401543:	89 44 24 1c          	mov    %eax,0x1c(%rsp)
  401547:	8b 44 24 24          	mov    0x24(%rsp),%eax
  40154b:	69 c0 a7 af 00 00    	imul   $0xafa7,%eax,%eax
  401551:	89 44 24 24          	mov    %eax,0x24(%rsp)
  401555:	8b 44 24 24          	mov    0x24(%rsp),%eax
  401559:	69 c0 da 76 00 00    	imul   $0x76da,%eax,%eax
  40155f:	89 44 24 24          	mov    %eax,0x24(%rsp)
  401563:	8b 44 24 04          	mov    0x4(%rsp),%eax
  401567:	69 c0 a6 b7 00 00    	imul   $0xb7a6,%eax,%eax
  40156d:	89 44 24 04          	mov    %eax,0x4(%rsp)
  401571:	8b 44 24 08          	mov    0x8(%rsp),%eax
  401575:	69 c0 9a 84 00 00    	imul   $0x849a,%eax,%eax
  40157b:	89 44 24 08          	mov    %eax,0x8(%rsp)
  40157f:	8b 44 24 08          	mov    0x8(%rsp),%eax
  401583:	69 c0 4b f0 00 00    	imul   $0xf04b,%eax,%eax
  401589:	89 44 24 08          	mov    %eax,0x8(%rsp)
  40158d:	8b 44 24 14          	mov    0x14(%rsp),%eax
  401591:	69 c0 fb 37 00 00    	imul   $0x37fb,%eax,%eax
  401597:	89 44 24 14          	mov    %eax,0x14(%rsp)
  40159b:	8b 44 24 08          	mov    0x8(%rsp),%eax
  40159f:	69 c0 29 fb 00 00    	imul   $0xfb29,%eax,%eax
  4015a5:	89 44 24 08          	mov    %eax,0x8(%rsp)
  4015a9:	8b 44 24 08          	mov    0x8(%rsp),%eax
  4015ad:	69 c0 dc 6e 00 00    	imul   $0x6edc,%eax,%eax
  4015b3:	89 44 24 08          	mov    %eax,0x8(%rsp)
  4015b7:	8b 44 24 20          	mov    0x20(%rsp),%eax
  4015bb:	69 c0 2d 70 00 00    	imul   $0x702d,%eax,%eax
  4015c1:	89 44 24 20          	mov    %eax,0x20(%rsp)
  4015c5:	8b 44 24 14          	mov    0x14(%rsp),%eax
  4015c9:	69 c0 23 e6 00 00    	imul   $0xe623,%eax,%eax
  4015cf:	89 44 24 14          	mov    %eax,0x14(%rsp)
  4015d3:	8b 44 24 20          	mov    0x20(%rsp),%eax
  4015d7:	69 c0 78 68 00 00    	imul   $0x6878,%eax,%eax
  4015dd:	89 44 24 20          	mov    %eax,0x20(%rsp)
  4015e1:	8b 44 24 0c          	mov    0xc(%rsp),%eax
  4015e5:	69 c0 3a 9f 00 00    	imul   $0x9f3a,%eax,%eax
  4015eb:	89 44 24 0c          	mov    %eax,0xc(%rsp)
  4015ef:	8b 44 24 10          	mov    0x10(%rsp),%eax
  4015f3:	69 c0 62 8d 00 00    	imul   $0x8d62,%eax,%eax
  4015f9:	89 44 24 10          	mov    %eax,0x10(%rsp)
  4015fd:	8b 44 24 20          	mov    0x20(%rsp),%eax
  401601:	69 c0 91 53 00 00    	imul   $0x5391,%eax,%eax
  401607:	89 44 24 20          	mov    %eax,0x20(%rsp)
  40160b:	8b 44 24 18          	mov    0x18(%rsp),%eax
  40160f:	69 c0 19 1d 00 00    	imul   $0x1d19,%eax,%eax
  401615:	89 44 24 18          	mov    %eax,0x18(%rsp)
  401619:	8b 44 24 14          	mov    0x14(%rsp),%eax
  40161d:	69 c0 4c a5 00 00    	imul   $0xa54c,%eax,%eax
  401623:	89 44 24 14          	mov    %eax,0x14(%rsp)
  401627:	8b 44 24 20          	mov    0x20(%rsp),%eax
  40162b:	69 c0 57 89 00 00    	imul   $0x8957,%eax,%eax
  401631:	89 44 24 20          	mov    %eax,0x20(%rsp)
  401635:	8b 44 24 1c          	mov    0x1c(%rsp),%eax
  401639:	69 c0 5c 87 00 00    	imul   $0x875c,%eax,%eax
  40163f:	89 44 24 1c          	mov    %eax,0x1c(%rsp)
  401643:	8b 44 24 10          	mov    0x10(%rsp),%eax
  401647:	69 c0 5b 44 00 00    	imul   $0x445b,%eax,%eax
  40164d:	89 44 24 10          	mov    %eax,0x10(%rsp)
  401651:	8b 44 24 0c          	mov    0xc(%rsp),%eax
  401655:	69 c0 5f 04 00 00    	imul   $0x45f,%eax,%eax
  40165b:	89 44 24 0c          	mov    %eax,0xc(%rsp)
  40165f:	8b 44 24 04          	mov    0x4(%rsp),%eax
  401663:	69 c0 f9 9a 00 00    	imul   $0x9af9,%eax,%eax
  401669:	89 44 24 04          	mov    %eax,0x4(%rsp)
  40166d:	8b 44 24 20          	mov    0x20(%rsp),%eax
  401671:	69 c0 e4 ed 00 00    	imul   $0xede4,%eax,%eax
  401677:	89 44 24 20          	mov    %eax,0x20(%rsp)
  40167b:	8b 44 24 08          	mov    0x8(%rsp),%eax
  40167f:	69 c0 f5 db 00 00    	imul   $0xdbf5,%eax,%eax
  401685:	89 44 24 08          	mov    %eax,0x8(%rsp)
  401689:	8b 44 24 18          	mov    0x18(%rsp),%eax
  40168d:	69 c0 b4 49 00 00    	imul   $0x49b4,%eax,%eax
  401693:	89 44 24 18          	mov    %eax,0x18(%rsp)
  401697:	8b 44 24 08          	mov    0x8(%rsp),%eax
  40169b:	69 c0 e3 7e 00 00    	imul   $0x7ee3,%eax,%eax
  4016a1:	89 44 24 08          	mov    %eax,0x8(%rsp)
  4016a5:	8b 44 24 14          	mov    0x14(%rsp),%eax
  4016a9:	69 c0 65 72 00 00    	imul   $0x7265,%eax,%eax
  4016af:	89 44 24 14          	mov    %eax,0x14(%rsp)
  4016b3:	8b 44 24 20          	mov    0x20(%rsp),%eax
  4016b7:	69 c0 94 7d 00 00    	imul   $0x7d94,%eax,%eax
  4016bd:	89 44 24 20          	mov    %eax,0x20(%rsp)
  4016c1:	8b 44 24 24          	mov    0x24(%rsp),%eax
  4016c5:	69 c0 b6 90 00 00    	imul   $0x90b6,%eax,%eax
  4016cb:	89 44 24 24          	mov    %eax,0x24(%rsp)
  4016cf:	8b 44 24 1c          	mov    0x1c(%rsp),%eax
  4016d3:	69 c0 1c fb 00 00    	imul   $0xfb1c,%eax,%eax
  4016d9:	89 44 24 1c          	mov    %eax,0x1c(%rsp)
  4016dd:	8b 44 24 10          	mov    0x10(%rsp),%eax
  4016e1:	69 c0 fb a5 00 00    	imul   $0xa5fb,%eax,%eax
  4016e7:	89 44 24 10          	mov    %eax,0x10(%rsp)
  4016eb:	8b 44 24 1c          	mov    0x1c(%rsp),%eax
  4016ef:	69 c0 c7 c1 00 00    	imul   $0xc1c7,%eax,%eax
  4016f5:	89 44 24 1c          	mov    %eax,0x1c(%rsp)
  4016f9:	8b 44 24 08          	mov    0x8(%rsp),%eax
  4016fd:	69 c0 f7 e4 00 00    	imul   $0xe4f7,%eax,%eax
  401703:	89 44 24 08          	mov    %eax,0x8(%rsp)
  401707:	8b 44 24 14          	mov    0x14(%rsp),%eax
  40170b:	69 c0 6e 67 00 00    	imul   $0x676e,%eax,%eax
  401711:	89 44 24 14          	mov    %eax,0x14(%rsp)
  401715:	8b 44 24 14          	mov    0x14(%rsp),%eax
  401719:	69 c0 1c 8c 00 00    	imul   $0x8c1c,%eax,%eax
  40171f:	89 44 24 14          	mov    %eax,0x14(%rsp)
  401723:	8b 44 24 04          	mov    0x4(%rsp),%eax
  401727:	69 c0 4a 78 00 00    	imul   $0x784a,%eax,%eax
  40172d:	89 44 24 04          	mov    %eax,0x4(%rsp)
  401731:	8b 44 24 04          	mov    0x4(%rsp),%eax
  401735:	69 c0 70 e0 00 00    	imul   $0xe070,%eax,%eax
  40173b:	89 44 24 04          	mov    %eax,0x4(%rsp)
  40173f:	8b 44 24 20          	mov    0x20(%rsp),%eax
  401743:	69 c0 d6 cc 00 00    	imul   $0xccd6,%eax,%eax
  401749:	89 44 24 20          	mov    %eax,0x20(%rsp)
  40174d:	8b 44 24 24          	mov    0x24(%rsp),%eax
  401751:	69 c0 65 a9 00 00    	imul   $0xa965,%eax,%eax
  401757:	89 44 24 24          	mov    %eax,0x24(%rsp)
  40175b:	8b 44 24 24          	mov    0x24(%rsp),%eax
  40175f:	69 c0 15 2b 00 00    	imul   $0x2b15,%eax,%eax
  401765:	89 44 24 24          	mov    %eax,0x24(%rsp)
  401769:	8b 44 24 10          	mov    0x10(%rsp),%eax
  40176d:	69 c0 ee f4 00 00    	imul   $0xf4ee,%eax,%eax
  401773:	89 44 24 10          	mov    %eax,0x10(%rsp)
  401777:	8b 44 24 24          	mov    0x24(%rsp),%eax
  40177b:	69 c0 f1 22 00 00    	imul   $0x22f1,%eax,%eax
  401781:	89 44 24 24          	mov    %eax,0x24(%rsp)
  401785:	8b 44 24 20          	mov    0x20(%rsp),%eax
  401789:	69 c0 53 91 00 00    	imul   $0x9153,%eax,%eax
  40178f:	89 44 24 20          	mov    %eax,0x20(%rsp)
  401793:	8b 44 24 24          	mov    0x24(%rsp),%eax
  401797:	69 c0 f3 78 00 00    	imul   $0x78f3,%eax,%eax
  40179d:	89 44 24 24          	mov    %eax,0x24(%rsp)
  4017a1:	8b 44 24 10          	mov    0x10(%rsp),%eax
  4017a5:	69 c0 7d ab 00 00    	imul   $0xab7d,%eax,%eax
  4017ab:	89 44 24 10          	mov    %eax,0x10(%rsp)
  4017af:	8b 44 24 20          	mov    0x20(%rsp),%eax
  4017b3:	69 c0 51 06 00 00    	imul   $0x651,%eax,%eax
  4017b9:	89 44 24 20          	mov    %eax,0x20(%rsp)
  4017bd:	8b 44 24 08          	mov    0x8(%rsp),%eax
  4017c1:	69 c0 46 8c 00 00    	imul   $0x8c46,%eax,%eax
  4017c7:	89 44 24 08          	mov    %eax,0x8(%rsp)
  4017cb:	8b 44 24 24          	mov    0x24(%rsp),%eax
  4017cf:	69 c0 c0 9c 00 00    	imul   $0x9cc0,%eax,%eax
  4017d5:	89 44 24 24          	mov    %eax,0x24(%rsp)
  4017d9:	8b 44 24 18          	mov    0x18(%rsp),%eax
  4017dd:	69 c0 37 13 00 00    	imul   $0x1337,%eax,%eax
  4017e3:	89 44 24 18          	mov    %eax,0x18(%rsp)
  4017e7:	8b 44 24 1c          	mov    0x1c(%rsp),%eax
  4017eb:	69 c0 90 dd 00 00    	imul   $0xdd90,%eax,%eax
  4017f1:	89 44 24 1c          	mov    %eax,0x1c(%rsp)
  4017f5:	8b 44 24 10          	mov    0x10(%rsp),%eax
  4017f9:	69 c0 f7 af 00 00    	imul   $0xaff7,%eax,%eax
  4017ff:	89 44 24 10          	mov    %eax,0x10(%rsp)
  401803:	8b 44 24 08          	mov    0x8(%rsp),%eax
  401807:	69 c0 ce 2f 00 00    	imul   $0x2fce,%eax,%eax
  40180d:	89 44 24 08          	mov    %eax,0x8(%rsp)
  401811:	8b 44 24 0c          	mov    0xc(%rsp),%eax
  401815:	69 c0 1d 69 00 00    	imul   $0x691d,%eax,%eax
  40181b:	89 44 24 0c          	mov    %eax,0xc(%rsp)
  40181f:	8b 44 24 18          	mov    0x18(%rsp),%eax
  401823:	69 c0 bc 5e 00 00    	imul   $0x5ebc,%eax,%eax
  401829:	89 44 24 18          	mov    %eax,0x18(%rsp)
  40182d:	8b 44 24 0c          	mov    0xc(%rsp),%eax
  401831:	69 c0 70 a5 00 00    	imul   $0xa570,%eax,%eax
  401837:	89 44 24 0c          	mov    %eax,0xc(%rsp)
  40183b:	8b 44 24 08          	mov    0x8(%rsp),%eax
  40183f:	69 c0 9c 05 00 00    	imul   $0x59c,%eax,%eax
  401845:	89 44 24 08          	mov    %eax,0x8(%rsp)
  401849:	8b 44 24 0c          	mov    0xc(%rsp),%eax
  40184d:	69 c0 c9 33 00 00    	imul   $0x33c9,%eax,%eax
  401853:	89 44 24 0c          	mov    %eax,0xc(%rsp)
  401857:	8b 04 24             	mov    (%rsp),%eax
  40185a:	69 c0 b2 01 00 00    	imul   $0x1b2,%eax,%eax
  401860:	89 04 24             	mov    %eax,(%rsp)
  401863:	8b 44 24 14          	mov    0x14(%rsp),%eax
  401867:	69 c0 13 c9 00 00    	imul   $0xc913,%eax,%eax
  40186d:	89 44 24 14          	mov    %eax,0x14(%rsp)
  401871:	8b 44 24 08          	mov    0x8(%rsp),%eax
  401875:	69 c0 26 e7 00 00    	imul   $0xe726,%eax,%eax
  40187b:	89 44 24 08          	mov    %eax,0x8(%rsp)
  40187f:	8b 44 24 04          	mov    0x4(%rsp),%eax
  401883:	69 c0 b5 ee 00 00    	imul   $0xeeb5,%eax,%eax
  401889:	89 44 24 04          	mov    %eax,0x4(%rsp)
  40188d:	8b 44 24 24          	mov    0x24(%rsp),%eax
  401891:	69 c0 09 c6 00 00    	imul   $0xc609,%eax,%eax
  401897:	89 44 24 24          	mov    %eax,0x24(%rsp)
  40189b:	8b 44 24 04          	mov    0x4(%rsp),%eax
  40189f:	69 c0 8f b5 00 00    	imul   $0xb58f,%eax,%eax
  4018a5:	89 44 24 04          	mov    %eax,0x4(%rsp)
  4018a9:	8b 04 24             	mov    (%rsp),%eax
  4018ac:	69 c0 38 ec 00 00    	imul   $0xec38,%eax,%eax
  4018b2:	89 04 24             	mov    %eax,(%rsp)
  4018b5:	8b 44 24 0c          	mov    0xc(%rsp),%eax
  4018b9:	69 c0 f7 66 00 00    	imul   $0x66f7,%eax,%eax
  4018bf:	89 44 24 0c          	mov    %eax,0xc(%rsp)
  4018c3:	8b 04 24             	mov    (%rsp),%eax
  4018c6:	69 c0 19 68 00 00    	imul   $0x6819,%eax,%eax
  4018cc:	89 04 24             	mov    %eax,(%rsp)
  4018cf:	8b 44 24 20          	mov    0x20(%rsp),%eax
  4018d3:	69 c0 a3 1f 00 00    	imul   $0x1fa3,%eax,%eax
  4018d9:	89 44 24 20          	mov    %eax,0x20(%rsp)
  4018dd:	8b 44 24 1c          	mov    0x1c(%rsp),%eax
  4018e1:	69 c0 56 a7 00 00    	imul   $0xa756,%eax,%eax
  4018e7:	89 44 24 1c          	mov    %eax,0x1c(%rsp)
  4018eb:	8b 44 24 1c          	mov    0x1c(%rsp),%eax
  4018ef:	69 c0 8d 94 00 00    	imul   $0x948d,%eax,%eax
  4018f5:	89 44 24 1c          	mov    %eax,0x1c(%rsp)
  4018f9:	8b 44 24 14          	mov    0x14(%rsp),%eax
  4018fd:	69 c0 43 9b 00 00    	imul   $0x9b43,%eax,%eax
  401903:	89 44 24 14          	mov    %eax,0x14(%rsp)
  401907:	8b 44 24 14          	mov    0x14(%rsp),%eax
  40190b:	69 c0 e4 8f 00 00    	imul   $0x8fe4,%eax,%eax
  401911:	89 44 24 14          	mov    %eax,0x14(%rsp)
  401915:	ba 00 00 00 00       	mov    $0x0,%edx
  40191a:	b8 00 00 00 00       	mov    $0x0,%eax
  40191f:	eb 0a                	jmp    40192b <scramble+0x597>
  401921:	89 d1                	mov    %edx,%ecx
  401923:	8b 0c 8c             	mov    (%rsp,%rcx,4),%ecx
  401926:	01 c8                	add    %ecx,%eax
  401928:	83 c2 01             	add    $0x1,%edx
  40192b:	83 fa 09             	cmp    $0x9,%edx
  40192e:	76 f1                	jbe    401921 <scramble+0x58d>
  401930:	48 8b 74 24 28       	mov    0x28(%rsp),%rsi
  401935:	64 48 33 34 25 28 00 	xor    %fs:0x28,%rsi
  40193c:	00 00 
  40193e:	74 05                	je     401945 <scramble+0x5b1>
  401940:	e8 ab f3 ff ff       	callq  400cf0 <__stack_chk_fail@plt>
  401945:	48 83 c4 38          	add    $0x38,%rsp
  401949:	c3                   	retq   

000000000040194a <getbuf>:
  40194a:	48 83 ec 38          	sub    $0x38,%rsp
  40194e:	48 89 e7             	mov    %rsp,%rdi
  401951:	e8 7e 02 00 00       	callq  401bd4 <Gets>
  401956:	b8 01 00 00 00       	mov    $0x1,%eax
  40195b:	48 83 c4 38          	add    $0x38,%rsp
  40195f:	c3                   	retq   

0000000000401960 <touch1>:
  401960:	48 83 ec 08          	sub    $0x8,%rsp
  401964:	c7 05 ae 3b 20 00 01 	movl   $0x1,0x203bae(%rip)        # 60551c <vlevel>
  40196b:	00 00 00 
  40196e:	bf 8e 32 40 00       	mov    $0x40328e,%edi
  401973:	e8 58 f3 ff ff       	callq  400cd0 <puts@plt>
  401978:	bf 01 00 00 00       	mov    $0x1,%edi
  40197d:	e8 97 04 00 00       	callq  401e19 <validate>
  401982:	bf 00 00 00 00       	mov    $0x0,%edi
  401987:	e8 c4 f4 ff ff       	callq  400e50 <exit@plt>

000000000040198c <touch2>:
  40198c:	48 83 ec 08          	sub    $0x8,%rsp
  401990:	89 fa                	mov    %edi,%edx
  401992:	c7 05 80 3b 20 00 02 	movl   $0x2,0x203b80(%rip)        # 60551c <vlevel>
  401999:	00 00 00 
  40199c:	39 3d 82 3b 20 00    	cmp    %edi,0x203b82(%rip)        # 605524 <cookie>
  4019a2:	75 20                	jne    4019c4 <touch2+0x38>
  4019a4:	be b0 32 40 00       	mov    $0x4032b0,%esi
  4019a9:	bf 01 00 00 00       	mov    $0x1,%edi
  4019ae:	b8 00 00 00 00       	mov    $0x0,%eax
  4019b3:	e8 48 f4 ff ff       	callq  400e00 <__printf_chk@plt>
  4019b8:	bf 02 00 00 00       	mov    $0x2,%edi
  4019bd:	e8 57 04 00 00       	callq  401e19 <validate>
  4019c2:	eb 1e                	jmp    4019e2 <touch2+0x56>
  4019c4:	be d8 32 40 00       	mov    $0x4032d8,%esi
  4019c9:	bf 01 00 00 00       	mov    $0x1,%edi
  4019ce:	b8 00 00 00 00       	mov    $0x0,%eax
  4019d3:	e8 28 f4 ff ff       	callq  400e00 <__printf_chk@plt>
  4019d8:	bf 02 00 00 00       	mov    $0x2,%edi
  4019dd:	e8 f9 04 00 00       	callq  401edb <fail>
  4019e2:	bf 00 00 00 00       	mov    $0x0,%edi
  4019e7:	e8 64 f4 ff ff       	callq  400e50 <exit@plt>

00000000004019ec <hexmatch>:
  4019ec:	41 54                	push   %r12
  4019ee:	55                   	push   %rbp
  4019ef:	53                   	push   %rbx
  4019f0:	48 83 c4 80          	add    $0xffffffffffffff80,%rsp
  4019f4:	89 fd                	mov    %edi,%ebp
  4019f6:	48 89 f3             	mov    %rsi,%rbx
  4019f9:	64 48 8b 04 25 28 00 	mov    %fs:0x28,%rax
  401a00:	00 00 
  401a02:	48 89 44 24 78       	mov    %rax,0x78(%rsp)
  401a07:	31 c0                	xor    %eax,%eax
  401a09:	e8 b2 f3 ff ff       	callq  400dc0 <random@plt>
  401a0e:	48 89 c1             	mov    %rax,%rcx
  401a11:	48 ba 0b d7 a3 70 3d 	movabs $0xa3d70a3d70a3d70b,%rdx
  401a18:	0a d7 a3 
  401a1b:	48 f7 ea             	imul   %rdx
  401a1e:	48 01 ca             	add    %rcx,%rdx
  401a21:	48 c1 fa 06          	sar    $0x6,%rdx
  401a25:	48 89 c8             	mov    %rcx,%rax
  401a28:	48 c1 f8 3f          	sar    $0x3f,%rax
  401a2c:	48 29 c2             	sub    %rax,%rdx
  401a2f:	48 8d 04 92          	lea    (%rdx,%rdx,4),%rax
  401a33:	48 8d 14 80          	lea    (%rax,%rax,4),%rdx
  401a37:	48 8d 04 95 00 00 00 	lea    0x0(,%rdx,4),%rax
  401a3e:	00 
  401a3f:	48 29 c1             	sub    %rax,%rcx
  401a42:	4c 8d 24 0c          	lea    (%rsp,%rcx,1),%r12
  401a46:	41 89 e8             	mov    %ebp,%r8d
  401a49:	b9 ab 32 40 00       	mov    $0x4032ab,%ecx
  401a4e:	48 c7 c2 ff ff ff ff 	mov    $0xffffffffffffffff,%rdx
  401a55:	be 01 00 00 00       	mov    $0x1,%esi
  401a5a:	4c 89 e7             	mov    %r12,%rdi
  401a5d:	b8 00 00 00 00       	mov    $0x0,%eax
  401a62:	e8 19 f4 ff ff       	callq  400e80 <__sprintf_chk@plt>
  401a67:	ba 09 00 00 00       	mov    $0x9,%edx
  401a6c:	4c 89 e6             	mov    %r12,%rsi
  401a6f:	48 89 df             	mov    %rbx,%rdi
  401a72:	e8 39 f2 ff ff       	callq  400cb0 <strncmp@plt>
  401a77:	85 c0                	test   %eax,%eax
  401a79:	0f 94 c0             	sete   %al
  401a7c:	48 8b 5c 24 78       	mov    0x78(%rsp),%rbx
  401a81:	64 48 33 1c 25 28 00 	xor    %fs:0x28,%rbx
  401a88:	00 00 
  401a8a:	74 05                	je     401a91 <hexmatch+0xa5>
  401a8c:	e8 5f f2 ff ff       	callq  400cf0 <__stack_chk_fail@plt>
  401a91:	0f b6 c0             	movzbl %al,%eax
  401a94:	48 83 ec 80          	sub    $0xffffffffffffff80,%rsp
  401a98:	5b                   	pop    %rbx
  401a99:	5d                   	pop    %rbp
  401a9a:	41 5c                	pop    %r12
  401a9c:	c3                   	retq   

0000000000401a9d <touch3>:
  401a9d:	53                   	push   %rbx
  401a9e:	48 89 fb             	mov    %rdi,%rbx
  401aa1:	c7 05 71 3a 20 00 03 	movl   $0x3,0x203a71(%rip)        # 60551c <vlevel>
  401aa8:	00 00 00 
  401aab:	48 89 fe             	mov    %rdi,%rsi
  401aae:	8b 3d 70 3a 20 00    	mov    0x203a70(%rip),%edi        # 605524 <cookie>
  401ab4:	e8 33 ff ff ff       	callq  4019ec <hexmatch>
  401ab9:	85 c0                	test   %eax,%eax
  401abb:	74 23                	je     401ae0 <touch3+0x43>
  401abd:	48 89 da             	mov    %rbx,%rdx
  401ac0:	be 00 33 40 00       	mov    $0x403300,%esi
  401ac5:	bf 01 00 00 00       	mov    $0x1,%edi
  401aca:	b8 00 00 00 00       	mov    $0x0,%eax
  401acf:	e8 2c f3 ff ff       	callq  400e00 <__printf_chk@plt>
  401ad4:	bf 03 00 00 00       	mov    $0x3,%edi
  401ad9:	e8 3b 03 00 00       	callq  401e19 <validate>
  401ade:	eb 21                	jmp    401b01 <touch3+0x64>
  401ae0:	48 89 da             	mov    %rbx,%rdx
  401ae3:	be 28 33 40 00       	mov    $0x403328,%esi
  401ae8:	bf 01 00 00 00       	mov    $0x1,%edi
  401aed:	b8 00 00 00 00       	mov    $0x0,%eax
  401af2:	e8 09 f3 ff ff       	callq  400e00 <__printf_chk@plt>
  401af7:	bf 03 00 00 00       	mov    $0x3,%edi
  401afc:	e8 da 03 00 00       	callq  401edb <fail>
  401b01:	bf 00 00 00 00       	mov    $0x0,%edi
  401b06:	e8 45 f3 ff ff       	callq  400e50 <exit@plt>

0000000000401b0b <test>:
  401b0b:	48 83 ec 08          	sub    $0x8,%rsp
  401b0f:	b8 00 00 00 00       	mov    $0x0,%eax
  401b14:	e8 31 fe ff ff       	callq  40194a <getbuf>
  401b19:	89 c2                	mov    %eax,%edx
  401b1b:	be 50 33 40 00       	mov    $0x403350,%esi
  401b20:	bf 01 00 00 00       	mov    $0x1,%edi
  401b25:	b8 00 00 00 00       	mov    $0x0,%eax
  401b2a:	e8 d1 f2 ff ff       	callq  400e00 <__printf_chk@plt>
  401b2f:	48 83 c4 08          	add    $0x8,%rsp
  401b33:	c3                   	retq   

0000000000401b34 <save_char>:
  401b34:	8b 05 0a 46 20 00    	mov    0x20460a(%rip),%eax        # 606144 <gets_cnt>
  401b3a:	3d ff 03 00 00       	cmp    $0x3ff,%eax
  401b3f:	7f 49                	jg     401b8a <save_char+0x56>
  401b41:	8d 14 40             	lea    (%rax,%rax,2),%edx
  401b44:	89 f9                	mov    %edi,%ecx
  401b46:	c0 e9 04             	shr    $0x4,%cl
  401b49:	83 e1 0f             	and    $0xf,%ecx
  401b4c:	0f b6 b1 70 36 40 00 	movzbl 0x403670(%rcx),%esi
  401b53:	48 63 ca             	movslq %edx,%rcx
  401b56:	40 88 b1 40 55 60 00 	mov    %sil,0x605540(%rcx)
  401b5d:	8d 4a 01             	lea    0x1(%rdx),%ecx
  401b60:	83 e7 0f             	and    $0xf,%edi
  401b63:	0f b6 b7 70 36 40 00 	movzbl 0x403670(%rdi),%esi
  401b6a:	48 63 c9             	movslq %ecx,%rcx
  401b6d:	40 88 b1 40 55 60 00 	mov    %sil,0x605540(%rcx)
  401b74:	83 c2 02             	add    $0x2,%edx
  401b77:	48 63 d2             	movslq %edx,%rdx
  401b7a:	c6 82 40 55 60 00 20 	movb   $0x20,0x605540(%rdx)
  401b81:	83 c0 01             	add    $0x1,%eax
  401b84:	89 05 ba 45 20 00    	mov    %eax,0x2045ba(%rip)        # 606144 <gets_cnt>
  401b8a:	f3 c3                	repz retq 

0000000000401b8c <save_term>:
  401b8c:	8b 05 b2 45 20 00    	mov    0x2045b2(%rip),%eax        # 606144 <gets_cnt>
  401b92:	8d 04 40             	lea    (%rax,%rax,2),%eax
  401b95:	48 98                	cltq   
  401b97:	c6 80 40 55 60 00 00 	movb   $0x0,0x605540(%rax)
  401b9e:	c3                   	retq   

0000000000401b9f <check_fail>:
  401b9f:	48 83 ec 08          	sub    $0x8,%rsp
  401ba3:	0f be 15 9e 45 20 00 	movsbl 0x20459e(%rip),%edx        # 606148 <target_prefix>
  401baa:	41 b8 40 55 60 00    	mov    $0x605540,%r8d
  401bb0:	8b 0d 62 39 20 00    	mov    0x203962(%rip),%ecx        # 605518 <check_level>
  401bb6:	be 73 33 40 00       	mov    $0x403373,%esi
  401bbb:	bf 01 00 00 00       	mov    $0x1,%edi
  401bc0:	b8 00 00 00 00       	mov    $0x0,%eax
  401bc5:	e8 36 f2 ff ff       	callq  400e00 <__printf_chk@plt>
  401bca:	bf 01 00 00 00       	mov    $0x1,%edi
  401bcf:	e8 7c f2 ff ff       	callq  400e50 <exit@plt>

0000000000401bd4 <Gets>:
  401bd4:	41 54                	push   %r12
  401bd6:	55                   	push   %rbp
  401bd7:	53                   	push   %rbx
  401bd8:	49 89 fc             	mov    %rdi,%r12
  401bdb:	c7 05 5f 45 20 00 00 	movl   $0x0,0x20455f(%rip)        # 606144 <gets_cnt>
  401be2:	00 00 00 
  401be5:	48 89 fb             	mov    %rdi,%rbx
  401be8:	eb 11                	jmp    401bfb <Gets+0x27>
  401bea:	48 8d 6b 01          	lea    0x1(%rbx),%rbp
  401bee:	88 03                	mov    %al,(%rbx)
  401bf0:	0f b6 f8             	movzbl %al,%edi
  401bf3:	e8 3c ff ff ff       	callq  401b34 <save_char>
  401bf8:	48 89 eb             	mov    %rbp,%rbx
  401bfb:	48 8b 3d 0e 39 20 00 	mov    0x20390e(%rip),%rdi        # 605510 <infile>
  401c02:	e8 c9 f1 ff ff       	callq  400dd0 <_IO_getc@plt>
  401c07:	83 f8 ff             	cmp    $0xffffffff,%eax
  401c0a:	74 05                	je     401c11 <Gets+0x3d>
  401c0c:	83 f8 0a             	cmp    $0xa,%eax
  401c0f:	75 d9                	jne    401bea <Gets+0x16>
  401c11:	c6 03 00             	movb   $0x0,(%rbx)
  401c14:	b8 00 00 00 00       	mov    $0x0,%eax
  401c19:	e8 6e ff ff ff       	callq  401b8c <save_term>
  401c1e:	4c 89 e0             	mov    %r12,%rax
  401c21:	5b                   	pop    %rbx
  401c22:	5d                   	pop    %rbp
  401c23:	41 5c                	pop    %r12
  401c25:	c3                   	retq   

0000000000401c26 <notify_server>:
  401c26:	53                   	push   %rbx
  401c27:	48 81 ec 10 40 00 00 	sub    $0x4010,%rsp
  401c2e:	64 48 8b 04 25 28 00 	mov    %fs:0x28,%rax
  401c35:	00 00 
  401c37:	48 89 84 24 08 40 00 	mov    %rax,0x4008(%rsp)
  401c3e:	00 
  401c3f:	31 c0                	xor    %eax,%eax
  401c41:	83 3d e0 38 20 00 00 	cmpl   $0x0,0x2038e0(%rip)        # 605528 <is_checker>
  401c48:	0f 85 aa 01 00 00    	jne    401df8 <notify_server+0x1d2>
  401c4e:	89 fb                	mov    %edi,%ebx
  401c50:	8b 05 ee 44 20 00    	mov    0x2044ee(%rip),%eax        # 606144 <gets_cnt>
  401c56:	83 c0 64             	add    $0x64,%eax
  401c59:	3d 00 20 00 00       	cmp    $0x2000,%eax
  401c5e:	7e 1e                	jle    401c7e <notify_server+0x58>
  401c60:	be a8 34 40 00       	mov    $0x4034a8,%esi
  401c65:	bf 01 00 00 00       	mov    $0x1,%edi
  401c6a:	b8 00 00 00 00       	mov    $0x0,%eax
  401c6f:	e8 8c f1 ff ff       	callq  400e00 <__printf_chk@plt>
  401c74:	bf 01 00 00 00       	mov    $0x1,%edi
  401c79:	e8 d2 f1 ff ff       	callq  400e50 <exit@plt>
  401c7e:	0f be 05 c3 44 20 00 	movsbl 0x2044c3(%rip),%eax        # 606148 <target_prefix>
  401c85:	83 3d 1c 38 20 00 00 	cmpl   $0x0,0x20381c(%rip)        # 6054a8 <notify>
  401c8c:	74 08                	je     401c96 <notify_server+0x70>
  401c8e:	8b 15 8c 38 20 00    	mov    0x20388c(%rip),%edx        # 605520 <authkey>
  401c94:	eb 05                	jmp    401c9b <notify_server+0x75>
  401c96:	ba ff ff ff ff       	mov    $0xffffffff,%edx
  401c9b:	85 db                	test   %ebx,%ebx
  401c9d:	74 08                	je     401ca7 <notify_server+0x81>
  401c9f:	41 b9 89 33 40 00    	mov    $0x403389,%r9d
  401ca5:	eb 06                	jmp    401cad <notify_server+0x87>
  401ca7:	41 b9 8e 33 40 00    	mov    $0x40338e,%r9d
  401cad:	68 40 55 60 00       	pushq  $0x605540
  401cb2:	56                   	push   %rsi
  401cb3:	50                   	push   %rax
  401cb4:	52                   	push   %rdx
  401cb5:	44 8b 05 ac 34 20 00 	mov    0x2034ac(%rip),%r8d        # 605168 <target_id>
  401cbc:	b9 93 33 40 00       	mov    $0x403393,%ecx
  401cc1:	ba 00 20 00 00       	mov    $0x2000,%edx
  401cc6:	be 01 00 00 00       	mov    $0x1,%esi
  401ccb:	48 8d 7c 24 20       	lea    0x20(%rsp),%rdi
  401cd0:	b8 00 00 00 00       	mov    $0x0,%eax
  401cd5:	e8 a6 f1 ff ff       	callq  400e80 <__sprintf_chk@plt>
  401cda:	48 83 c4 20          	add    $0x20,%rsp
  401cde:	83 3d c3 37 20 00 00 	cmpl   $0x0,0x2037c3(%rip)        # 6054a8 <notify>
  401ce5:	0f 84 81 00 00 00    	je     401d6c <notify_server+0x146>
  401ceb:	85 db                	test   %ebx,%ebx
  401ced:	74 6e                	je     401d5d <notify_server+0x137>
  401cef:	4c 8d 8c 24 00 20 00 	lea    0x2000(%rsp),%r9
  401cf6:	00 
  401cf7:	41 b8 00 00 00 00    	mov    $0x0,%r8d
  401cfd:	48 89 e1             	mov    %rsp,%rcx
  401d00:	48 8b 15 69 34 20 00 	mov    0x203469(%rip),%rdx        # 605170 <lab>
  401d07:	48 8b 35 6a 34 20 00 	mov    0x20346a(%rip),%rsi        # 605178 <course>
  401d0e:	48 8b 3d 4b 34 20 00 	mov    0x20344b(%rip),%rdi        # 605160 <user_id>
  401d15:	e8 11 11 00 00       	callq  402e2b <driver_post>
  401d1a:	85 c0                	test   %eax,%eax
  401d1c:	79 26                	jns    401d44 <notify_server+0x11e>
  401d1e:	48 8d 94 24 00 20 00 	lea    0x2000(%rsp),%rdx
  401d25:	00 
  401d26:	be af 33 40 00       	mov    $0x4033af,%esi
  401d2b:	bf 01 00 00 00       	mov    $0x1,%edi
  401d30:	b8 00 00 00 00       	mov    $0x0,%eax
  401d35:	e8 c6 f0 ff ff       	callq  400e00 <__printf_chk@plt>
  401d3a:	bf 01 00 00 00       	mov    $0x1,%edi
  401d3f:	e8 0c f1 ff ff       	callq  400e50 <exit@plt>
  401d44:	bf d8 34 40 00       	mov    $0x4034d8,%edi
  401d49:	e8 82 ef ff ff       	callq  400cd0 <puts@plt>
  401d4e:	bf bb 33 40 00       	mov    $0x4033bb,%edi
  401d53:	e8 78 ef ff ff       	callq  400cd0 <puts@plt>
  401d58:	e9 9b 00 00 00       	jmpq   401df8 <notify_server+0x1d2>
  401d5d:	bf c5 33 40 00       	mov    $0x4033c5,%edi
  401d62:	e8 69 ef ff ff       	callq  400cd0 <puts@plt>
  401d67:	e9 8c 00 00 00       	jmpq   401df8 <notify_server+0x1d2>
  401d6c:	85 db                	test   %ebx,%ebx
  401d6e:	74 07                	je     401d77 <notify_server+0x151>
  401d70:	ba 89 33 40 00       	mov    $0x403389,%edx
  401d75:	eb 05                	jmp    401d7c <notify_server+0x156>
  401d77:	ba 8e 33 40 00       	mov    $0x40338e,%edx
  401d7c:	be 10 35 40 00       	mov    $0x403510,%esi
  401d81:	bf 01 00 00 00       	mov    $0x1,%edi
  401d86:	b8 00 00 00 00       	mov    $0x0,%eax
  401d8b:	e8 70 f0 ff ff       	callq  400e00 <__printf_chk@plt>
  401d90:	48 8b 15 c9 33 20 00 	mov    0x2033c9(%rip),%rdx        # 605160 <user_id>
  401d97:	be cc 33 40 00       	mov    $0x4033cc,%esi
  401d9c:	bf 01 00 00 00       	mov    $0x1,%edi
  401da1:	b8 00 00 00 00       	mov    $0x0,%eax
  401da6:	e8 55 f0 ff ff       	callq  400e00 <__printf_chk@plt>
  401dab:	48 8b 15 c6 33 20 00 	mov    0x2033c6(%rip),%rdx        # 605178 <course>
  401db2:	be d9 33 40 00       	mov    $0x4033d9,%esi
  401db7:	bf 01 00 00 00       	mov    $0x1,%edi
  401dbc:	b8 00 00 00 00       	mov    $0x0,%eax
  401dc1:	e8 3a f0 ff ff       	callq  400e00 <__printf_chk@plt>
  401dc6:	48 8b 15 a3 33 20 00 	mov    0x2033a3(%rip),%rdx        # 605170 <lab>
  401dcd:	be e5 33 40 00       	mov    $0x4033e5,%esi
  401dd2:	bf 01 00 00 00       	mov    $0x1,%edi
  401dd7:	b8 00 00 00 00       	mov    $0x0,%eax
  401ddc:	e8 1f f0 ff ff       	callq  400e00 <__printf_chk@plt>
  401de1:	48 89 e2             	mov    %rsp,%rdx
  401de4:	be ee 33 40 00       	mov    $0x4033ee,%esi
  401de9:	bf 01 00 00 00       	mov    $0x1,%edi
  401dee:	b8 00 00 00 00       	mov    $0x0,%eax
  401df3:	e8 08 f0 ff ff       	callq  400e00 <__printf_chk@plt>
  401df8:	48 8b 84 24 08 40 00 	mov    0x4008(%rsp),%rax
  401dff:	00 
  401e00:	64 48 33 04 25 28 00 	xor    %fs:0x28,%rax
  401e07:	00 00 
  401e09:	74 05                	je     401e10 <notify_server+0x1ea>
  401e0b:	e8 e0 ee ff ff       	callq  400cf0 <__stack_chk_fail@plt>
  401e10:	48 81 c4 10 40 00 00 	add    $0x4010,%rsp
  401e17:	5b                   	pop    %rbx
  401e18:	c3                   	retq   

0000000000401e19 <validate>:
  401e19:	53                   	push   %rbx
  401e1a:	89 fb                	mov    %edi,%ebx
  401e1c:	83 3d 05 37 20 00 00 	cmpl   $0x0,0x203705(%rip)        # 605528 <is_checker>
  401e23:	74 6b                	je     401e90 <validate+0x77>
  401e25:	39 3d f1 36 20 00    	cmp    %edi,0x2036f1(%rip)        # 60551c <vlevel>
  401e2b:	74 14                	je     401e41 <validate+0x28>
  401e2d:	bf fa 33 40 00       	mov    $0x4033fa,%edi
  401e32:	e8 99 ee ff ff       	callq  400cd0 <puts@plt>
  401e37:	b8 00 00 00 00       	mov    $0x0,%eax
  401e3c:	e8 5e fd ff ff       	callq  401b9f <check_fail>
  401e41:	8b 15 d1 36 20 00    	mov    0x2036d1(%rip),%edx        # 605518 <check_level>
  401e47:	39 d7                	cmp    %edx,%edi
  401e49:	74 20                	je     401e6b <validate+0x52>
  401e4b:	89 f9                	mov    %edi,%ecx
  401e4d:	be 38 35 40 00       	mov    $0x403538,%esi
  401e52:	bf 01 00 00 00       	mov    $0x1,%edi
  401e57:	b8 00 00 00 00       	mov    $0x0,%eax
  401e5c:	e8 9f ef ff ff       	callq  400e00 <__printf_chk@plt>
  401e61:	b8 00 00 00 00       	mov    $0x0,%eax
  401e66:	e8 34 fd ff ff       	callq  401b9f <check_fail>
  401e6b:	0f be 15 d6 42 20 00 	movsbl 0x2042d6(%rip),%edx        # 606148 <target_prefix>
  401e72:	41 b8 40 55 60 00    	mov    $0x605540,%r8d
  401e78:	89 f9                	mov    %edi,%ecx
  401e7a:	be 18 34 40 00       	mov    $0x403418,%esi
  401e7f:	bf 01 00 00 00       	mov    $0x1,%edi
  401e84:	b8 00 00 00 00       	mov    $0x0,%eax
  401e89:	e8 72 ef ff ff       	callq  400e00 <__printf_chk@plt>
  401e8e:	eb 49                	jmp    401ed9 <validate+0xc0>
  401e90:	3b 3d 86 36 20 00    	cmp    0x203686(%rip),%edi        # 60551c <vlevel>
  401e96:	74 18                	je     401eb0 <validate+0x97>
  401e98:	bf fa 33 40 00       	mov    $0x4033fa,%edi
  401e9d:	e8 2e ee ff ff       	callq  400cd0 <puts@plt>
  401ea2:	89 de                	mov    %ebx,%esi
  401ea4:	bf 00 00 00 00       	mov    $0x0,%edi
  401ea9:	e8 78 fd ff ff       	callq  401c26 <notify_server>
  401eae:	eb 29                	jmp    401ed9 <validate+0xc0>
  401eb0:	0f be 0d 91 42 20 00 	movsbl 0x204291(%rip),%ecx        # 606148 <target_prefix>
  401eb7:	89 fa                	mov    %edi,%edx
  401eb9:	be 60 35 40 00       	mov    $0x403560,%esi
  401ebe:	bf 01 00 00 00       	mov    $0x1,%edi
  401ec3:	b8 00 00 00 00       	mov    $0x0,%eax
  401ec8:	e8 33 ef ff ff       	callq  400e00 <__printf_chk@plt>
  401ecd:	89 de                	mov    %ebx,%esi
  401ecf:	bf 01 00 00 00       	mov    $0x1,%edi
  401ed4:	e8 4d fd ff ff       	callq  401c26 <notify_server>
  401ed9:	5b                   	pop    %rbx
  401eda:	c3                   	retq   

0000000000401edb <fail>:
  401edb:	48 83 ec 08          	sub    $0x8,%rsp
  401edf:	83 3d 42 36 20 00 00 	cmpl   $0x0,0x203642(%rip)        # 605528 <is_checker>
  401ee6:	74 0a                	je     401ef2 <fail+0x17>
  401ee8:	b8 00 00 00 00       	mov    $0x0,%eax
  401eed:	e8 ad fc ff ff       	callq  401b9f <check_fail>
  401ef2:	89 fe                	mov    %edi,%esi
  401ef4:	bf 00 00 00 00       	mov    $0x0,%edi
  401ef9:	e8 28 fd ff ff       	callq  401c26 <notify_server>
  401efe:	48 83 c4 08          	add    $0x8,%rsp
  401f02:	c3                   	retq   

0000000000401f03 <bushandler>:
  401f03:	48 83 ec 08          	sub    $0x8,%rsp
  401f07:	83 3d 1a 36 20 00 00 	cmpl   $0x0,0x20361a(%rip)        # 605528 <is_checker>
  401f0e:	74 14                	je     401f24 <bushandler+0x21>
  401f10:	bf 2d 34 40 00       	mov    $0x40342d,%edi
  401f15:	e8 b6 ed ff ff       	callq  400cd0 <puts@plt>
  401f1a:	b8 00 00 00 00       	mov    $0x0,%eax
  401f1f:	e8 7b fc ff ff       	callq  401b9f <check_fail>
  401f24:	bf 98 35 40 00       	mov    $0x403598,%edi
  401f29:	e8 a2 ed ff ff       	callq  400cd0 <puts@plt>
  401f2e:	bf 37 34 40 00       	mov    $0x403437,%edi
  401f33:	e8 98 ed ff ff       	callq  400cd0 <puts@plt>
  401f38:	be 00 00 00 00       	mov    $0x0,%esi
  401f3d:	bf 00 00 00 00       	mov    $0x0,%edi
  401f42:	e8 df fc ff ff       	callq  401c26 <notify_server>
  401f47:	bf 01 00 00 00       	mov    $0x1,%edi
  401f4c:	e8 ff ee ff ff       	callq  400e50 <exit@plt>

0000000000401f51 <seghandler>:
  401f51:	48 83 ec 08          	sub    $0x8,%rsp
  401f55:	83 3d cc 35 20 00 00 	cmpl   $0x0,0x2035cc(%rip)        # 605528 <is_checker>
  401f5c:	74 14                	je     401f72 <seghandler+0x21>
  401f5e:	bf 4d 34 40 00       	mov    $0x40344d,%edi
  401f63:	e8 68 ed ff ff       	callq  400cd0 <puts@plt>
  401f68:	b8 00 00 00 00       	mov    $0x0,%eax
  401f6d:	e8 2d fc ff ff       	callq  401b9f <check_fail>
  401f72:	bf b8 35 40 00       	mov    $0x4035b8,%edi
  401f77:	e8 54 ed ff ff       	callq  400cd0 <puts@plt>
  401f7c:	bf 37 34 40 00       	mov    $0x403437,%edi
  401f81:	e8 4a ed ff ff       	callq  400cd0 <puts@plt>
  401f86:	be 00 00 00 00       	mov    $0x0,%esi
  401f8b:	bf 00 00 00 00       	mov    $0x0,%edi
  401f90:	e8 91 fc ff ff       	callq  401c26 <notify_server>
  401f95:	bf 01 00 00 00       	mov    $0x1,%edi
  401f9a:	e8 b1 ee ff ff       	callq  400e50 <exit@plt>

0000000000401f9f <illegalhandler>:
  401f9f:	48 83 ec 08          	sub    $0x8,%rsp
  401fa3:	83 3d 7e 35 20 00 00 	cmpl   $0x0,0x20357e(%rip)        # 605528 <is_checker>
  401faa:	74 14                	je     401fc0 <illegalhandler+0x21>
  401fac:	bf 60 34 40 00       	mov    $0x403460,%edi
  401fb1:	e8 1a ed ff ff       	callq  400cd0 <puts@plt>
  401fb6:	b8 00 00 00 00       	mov    $0x0,%eax
  401fbb:	e8 df fb ff ff       	callq  401b9f <check_fail>
  401fc0:	bf e0 35 40 00       	mov    $0x4035e0,%edi
  401fc5:	e8 06 ed ff ff       	callq  400cd0 <puts@plt>
  401fca:	bf 37 34 40 00       	mov    $0x403437,%edi
  401fcf:	e8 fc ec ff ff       	callq  400cd0 <puts@plt>
  401fd4:	be 00 00 00 00       	mov    $0x0,%esi
  401fd9:	bf 00 00 00 00       	mov    $0x0,%edi
  401fde:	e8 43 fc ff ff       	callq  401c26 <notify_server>
  401fe3:	bf 01 00 00 00       	mov    $0x1,%edi
  401fe8:	e8 63 ee ff ff       	callq  400e50 <exit@plt>

0000000000401fed <sigalrmhandler>:
  401fed:	48 83 ec 08          	sub    $0x8,%rsp
  401ff1:	83 3d 30 35 20 00 00 	cmpl   $0x0,0x203530(%rip)        # 605528 <is_checker>
  401ff8:	74 14                	je     40200e <sigalrmhandler+0x21>
  401ffa:	bf 74 34 40 00       	mov    $0x403474,%edi
  401fff:	e8 cc ec ff ff       	callq  400cd0 <puts@plt>
  402004:	b8 00 00 00 00       	mov    $0x0,%eax
  402009:	e8 91 fb ff ff       	callq  401b9f <check_fail>
  40200e:	ba 05 00 00 00       	mov    $0x5,%edx
  402013:	be 10 36 40 00       	mov    $0x403610,%esi
  402018:	bf 01 00 00 00       	mov    $0x1,%edi
  40201d:	b8 00 00 00 00       	mov    $0x0,%eax
  402022:	e8 d9 ed ff ff       	callq  400e00 <__printf_chk@plt>
  402027:	be 00 00 00 00       	mov    $0x0,%esi
  40202c:	bf 00 00 00 00       	mov    $0x0,%edi
  402031:	e8 f0 fb ff ff       	callq  401c26 <notify_server>
  402036:	bf 01 00 00 00       	mov    $0x1,%edi
  40203b:	e8 10 ee ff ff       	callq  400e50 <exit@plt>

0000000000402040 <launch>:
  402040:	55                   	push   %rbp
  402041:	48 89 e5             	mov    %rsp,%rbp
  402044:	48 83 ec 10          	sub    $0x10,%rsp
  402048:	48 89 fa             	mov    %rdi,%rdx
  40204b:	64 48 8b 04 25 28 00 	mov    %fs:0x28,%rax
  402052:	00 00 
  402054:	48 89 45 f8          	mov    %rax,-0x8(%rbp)
  402058:	31 c0                	xor    %eax,%eax
  40205a:	48 8d 47 1e          	lea    0x1e(%rdi),%rax
  40205e:	48 83 e0 f0          	and    $0xfffffffffffffff0,%rax
  402062:	48 29 c4             	sub    %rax,%rsp
  402065:	48 8d 7c 24 0f       	lea    0xf(%rsp),%rdi
  40206a:	48 83 e7 f0          	and    $0xfffffffffffffff0,%rdi
  40206e:	be f4 00 00 00       	mov    $0xf4,%esi
  402073:	e8 98 ec ff ff       	callq  400d10 <memset@plt>
  402078:	48 8b 05 41 34 20 00 	mov    0x203441(%rip),%rax        # 6054c0 <stdin@@GLIBC_2.2.5>
  40207f:	48 39 05 8a 34 20 00 	cmp    %rax,0x20348a(%rip)        # 605510 <infile>
  402086:	75 14                	jne    40209c <launch+0x5c>
  402088:	be 7c 34 40 00       	mov    $0x40347c,%esi
  40208d:	bf 01 00 00 00       	mov    $0x1,%edi
  402092:	b8 00 00 00 00       	mov    $0x0,%eax
  402097:	e8 64 ed ff ff       	callq  400e00 <__printf_chk@plt>
  40209c:	c7 05 76 34 20 00 00 	movl   $0x0,0x203476(%rip)        # 60551c <vlevel>
  4020a3:	00 00 00 
  4020a6:	b8 00 00 00 00       	mov    $0x0,%eax
  4020ab:	e8 5b fa ff ff       	callq  401b0b <test>
  4020b0:	83 3d 71 34 20 00 00 	cmpl   $0x0,0x203471(%rip)        # 605528 <is_checker>
  4020b7:	74 14                	je     4020cd <launch+0x8d>
  4020b9:	bf 89 34 40 00       	mov    $0x403489,%edi
  4020be:	e8 0d ec ff ff       	callq  400cd0 <puts@plt>
  4020c3:	b8 00 00 00 00       	mov    $0x0,%eax
  4020c8:	e8 d2 fa ff ff       	callq  401b9f <check_fail>
  4020cd:	bf 94 34 40 00       	mov    $0x403494,%edi
  4020d2:	e8 f9 eb ff ff       	callq  400cd0 <puts@plt>
  4020d7:	48 8b 45 f8          	mov    -0x8(%rbp),%rax
  4020db:	64 48 33 04 25 28 00 	xor    %fs:0x28,%rax
  4020e2:	00 00 
  4020e4:	74 05                	je     4020eb <launch+0xab>
  4020e6:	e8 05 ec ff ff       	callq  400cf0 <__stack_chk_fail@plt>
  4020eb:	c9                   	leaveq 
  4020ec:	c3                   	retq   

00000000004020ed <stable_launch>:
  4020ed:	53                   	push   %rbx
  4020ee:	48 89 3d 13 34 20 00 	mov    %rdi,0x203413(%rip)        # 605508 <global_offset>
  4020f5:	41 b9 00 00 00 00    	mov    $0x0,%r9d
  4020fb:	41 b8 00 00 00 00    	mov    $0x0,%r8d
  402101:	b9 32 01 00 00       	mov    $0x132,%ecx
  402106:	ba 07 00 00 00       	mov    $0x7,%edx
  40210b:	be 00 00 10 00       	mov    $0x100000,%esi
  402110:	bf 00 60 58 55       	mov    $0x55586000,%edi
  402115:	e8 e6 eb ff ff       	callq  400d00 <mmap@plt>
  40211a:	48 89 c3             	mov    %rax,%rbx
  40211d:	48 3d 00 60 58 55    	cmp    $0x55586000,%rax
  402123:	74 37                	je     40215c <stable_launch+0x6f>
  402125:	be 00 00 10 00       	mov    $0x100000,%esi
  40212a:	48 89 c7             	mov    %rax,%rdi
  40212d:	e8 be ec ff ff       	callq  400df0 <munmap@plt>
  402132:	b9 00 60 58 55       	mov    $0x55586000,%ecx
  402137:	ba 48 36 40 00       	mov    $0x403648,%edx
  40213c:	be 01 00 00 00       	mov    $0x1,%esi
  402141:	48 8b 3d 98 33 20 00 	mov    0x203398(%rip),%rdi        # 6054e0 <stderr@@GLIBC_2.2.5>
  402148:	b8 00 00 00 00       	mov    $0x0,%eax
  40214d:	e8 1e ed ff ff       	callq  400e70 <__fprintf_chk@plt>
  402152:	bf 01 00 00 00       	mov    $0x1,%edi
  402157:	e8 f4 ec ff ff       	callq  400e50 <exit@plt>
  40215c:	48 8d 90 f8 ff 0f 00 	lea    0xffff8(%rax),%rdx
  402163:	48 89 15 e6 3f 20 00 	mov    %rdx,0x203fe6(%rip)        # 606150 <stack_top>
  40216a:	48 89 e0             	mov    %rsp,%rax
  40216d:	48 89 d4             	mov    %rdx,%rsp
  402170:	48 89 c2             	mov    %rax,%rdx
  402173:	48 89 15 86 33 20 00 	mov    %rdx,0x203386(%rip)        # 605500 <global_save_stack>
  40217a:	48 8b 3d 87 33 20 00 	mov    0x203387(%rip),%rdi        # 605508 <global_offset>
  402181:	e8 ba fe ff ff       	callq  402040 <launch>
  402186:	48 8b 05 73 33 20 00 	mov    0x203373(%rip),%rax        # 605500 <global_save_stack>
  40218d:	48 89 c4             	mov    %rax,%rsp
  402190:	be 00 00 10 00       	mov    $0x100000,%esi
  402195:	48 89 df             	mov    %rbx,%rdi
  402198:	e8 53 ec ff ff       	callq  400df0 <munmap@plt>
  40219d:	5b                   	pop    %rbx
  40219e:	c3                   	retq   

000000000040219f <rio_readinitb>:
  40219f:	89 37                	mov    %esi,(%rdi)
  4021a1:	c7 47 04 00 00 00 00 	movl   $0x0,0x4(%rdi)
  4021a8:	48 8d 47 10          	lea    0x10(%rdi),%rax
  4021ac:	48 89 47 08          	mov    %rax,0x8(%rdi)
  4021b0:	c3                   	retq   

00000000004021b1 <sigalrm_handler>:
  4021b1:	48 83 ec 08          	sub    $0x8,%rsp
  4021b5:	b9 00 00 00 00       	mov    $0x0,%ecx
  4021ba:	ba 80 36 40 00       	mov    $0x403680,%edx
  4021bf:	be 01 00 00 00       	mov    $0x1,%esi
  4021c4:	48 8b 3d 15 33 20 00 	mov    0x203315(%rip),%rdi        # 6054e0 <stderr@@GLIBC_2.2.5>
  4021cb:	b8 00 00 00 00       	mov    $0x0,%eax
  4021d0:	e8 9b ec ff ff       	callq  400e70 <__fprintf_chk@plt>
  4021d5:	bf 01 00 00 00       	mov    $0x1,%edi
  4021da:	e8 71 ec ff ff       	callq  400e50 <exit@plt>

00000000004021df <rio_writen>:
  4021df:	41 55                	push   %r13
  4021e1:	41 54                	push   %r12
  4021e3:	55                   	push   %rbp
  4021e4:	53                   	push   %rbx
  4021e5:	48 83 ec 08          	sub    $0x8,%rsp
  4021e9:	41 89 fc             	mov    %edi,%r12d
  4021ec:	48 89 f5             	mov    %rsi,%rbp
  4021ef:	49 89 d5             	mov    %rdx,%r13
  4021f2:	48 89 d3             	mov    %rdx,%rbx
  4021f5:	eb 28                	jmp    40221f <rio_writen+0x40>
  4021f7:	48 89 da             	mov    %rbx,%rdx
  4021fa:	48 89 ee             	mov    %rbp,%rsi
  4021fd:	44 89 e7             	mov    %r12d,%edi
  402200:	e8 db ea ff ff       	callq  400ce0 <write@plt>
  402205:	48 85 c0             	test   %rax,%rax
  402208:	7f 0f                	jg     402219 <rio_writen+0x3a>
  40220a:	e8 81 ea ff ff       	callq  400c90 <__errno_location@plt>
  40220f:	83 38 04             	cmpl   $0x4,(%rax)
  402212:	75 15                	jne    402229 <rio_writen+0x4a>
  402214:	b8 00 00 00 00       	mov    $0x0,%eax
  402219:	48 29 c3             	sub    %rax,%rbx
  40221c:	48 01 c5             	add    %rax,%rbp
  40221f:	48 85 db             	test   %rbx,%rbx
  402222:	75 d3                	jne    4021f7 <rio_writen+0x18>
  402224:	4c 89 e8             	mov    %r13,%rax
  402227:	eb 07                	jmp    402230 <rio_writen+0x51>
  402229:	48 c7 c0 ff ff ff ff 	mov    $0xffffffffffffffff,%rax
  402230:	48 83 c4 08          	add    $0x8,%rsp
  402234:	5b                   	pop    %rbx
  402235:	5d                   	pop    %rbp
  402236:	41 5c                	pop    %r12
  402238:	41 5d                	pop    %r13
  40223a:	c3                   	retq   

000000000040223b <rio_read>:
  40223b:	41 55                	push   %r13
  40223d:	41 54                	push   %r12
  40223f:	55                   	push   %rbp
  402240:	53                   	push   %rbx
  402241:	48 83 ec 08          	sub    $0x8,%rsp
  402245:	48 89 fb             	mov    %rdi,%rbx
  402248:	49 89 f5             	mov    %rsi,%r13
  40224b:	49 89 d4             	mov    %rdx,%r12
  40224e:	eb 2e                	jmp    40227e <rio_read+0x43>
  402250:	48 8d 6b 10          	lea    0x10(%rbx),%rbp
  402254:	8b 3b                	mov    (%rbx),%edi
  402256:	ba 00 20 00 00       	mov    $0x2000,%edx
  40225b:	48 89 ee             	mov    %rbp,%rsi
  40225e:	e8 dd ea ff ff       	callq  400d40 <read@plt>
  402263:	89 43 04             	mov    %eax,0x4(%rbx)
  402266:	85 c0                	test   %eax,%eax
  402268:	79 0c                	jns    402276 <rio_read+0x3b>
  40226a:	e8 21 ea ff ff       	callq  400c90 <__errno_location@plt>
  40226f:	83 38 04             	cmpl   $0x4,(%rax)
  402272:	74 0a                	je     40227e <rio_read+0x43>
  402274:	eb 37                	jmp    4022ad <rio_read+0x72>
  402276:	85 c0                	test   %eax,%eax
  402278:	74 3c                	je     4022b6 <rio_read+0x7b>
  40227a:	48 89 6b 08          	mov    %rbp,0x8(%rbx)
  40227e:	8b 6b 04             	mov    0x4(%rbx),%ebp
  402281:	85 ed                	test   %ebp,%ebp
  402283:	7e cb                	jle    402250 <rio_read+0x15>
  402285:	89 e8                	mov    %ebp,%eax
  402287:	49 39 c4             	cmp    %rax,%r12
  40228a:	77 03                	ja     40228f <rio_read+0x54>
  40228c:	44 89 e5             	mov    %r12d,%ebp
  40228f:	4c 63 e5             	movslq %ebp,%r12
  402292:	48 8b 73 08          	mov    0x8(%rbx),%rsi
  402296:	4c 89 e2             	mov    %r12,%rdx
  402299:	4c 89 ef             	mov    %r13,%rdi
  40229c:	e8 ff ea ff ff       	callq  400da0 <memcpy@plt>
  4022a1:	4c 01 63 08          	add    %r12,0x8(%rbx)
  4022a5:	29 6b 04             	sub    %ebp,0x4(%rbx)
  4022a8:	4c 89 e0             	mov    %r12,%rax
  4022ab:	eb 0e                	jmp    4022bb <rio_read+0x80>
  4022ad:	48 c7 c0 ff ff ff ff 	mov    $0xffffffffffffffff,%rax
  4022b4:	eb 05                	jmp    4022bb <rio_read+0x80>
  4022b6:	b8 00 00 00 00       	mov    $0x0,%eax
  4022bb:	48 83 c4 08          	add    $0x8,%rsp
  4022bf:	5b                   	pop    %rbx
  4022c0:	5d                   	pop    %rbp
  4022c1:	41 5c                	pop    %r12
  4022c3:	41 5d                	pop    %r13
  4022c5:	c3                   	retq   

00000000004022c6 <rio_readlineb>:
  4022c6:	41 55                	push   %r13
  4022c8:	41 54                	push   %r12
  4022ca:	55                   	push   %rbp
  4022cb:	53                   	push   %rbx
  4022cc:	48 83 ec 18          	sub    $0x18,%rsp
  4022d0:	49 89 fd             	mov    %rdi,%r13
  4022d3:	48 89 f5             	mov    %rsi,%rbp
  4022d6:	49 89 d4             	mov    %rdx,%r12
  4022d9:	64 48 8b 04 25 28 00 	mov    %fs:0x28,%rax
  4022e0:	00 00 
  4022e2:	48 89 44 24 08       	mov    %rax,0x8(%rsp)
  4022e7:	31 c0                	xor    %eax,%eax
  4022e9:	bb 01 00 00 00       	mov    $0x1,%ebx
  4022ee:	eb 3f                	jmp    40232f <rio_readlineb+0x69>
  4022f0:	ba 01 00 00 00       	mov    $0x1,%edx
  4022f5:	48 8d 74 24 07       	lea    0x7(%rsp),%rsi
  4022fa:	4c 89 ef             	mov    %r13,%rdi
  4022fd:	e8 39 ff ff ff       	callq  40223b <rio_read>
  402302:	83 f8 01             	cmp    $0x1,%eax
  402305:	75 15                	jne    40231c <rio_readlineb+0x56>
  402307:	48 8d 45 01          	lea    0x1(%rbp),%rax
  40230b:	0f b6 54 24 07       	movzbl 0x7(%rsp),%edx
  402310:	88 55 00             	mov    %dl,0x0(%rbp)
  402313:	80 7c 24 07 0a       	cmpb   $0xa,0x7(%rsp)
  402318:	75 0e                	jne    402328 <rio_readlineb+0x62>
  40231a:	eb 1a                	jmp    402336 <rio_readlineb+0x70>
  40231c:	85 c0                	test   %eax,%eax
  40231e:	75 22                	jne    402342 <rio_readlineb+0x7c>
  402320:	48 83 fb 01          	cmp    $0x1,%rbx
  402324:	75 13                	jne    402339 <rio_readlineb+0x73>
  402326:	eb 23                	jmp    40234b <rio_readlineb+0x85>
  402328:	48 83 c3 01          	add    $0x1,%rbx
  40232c:	48 89 c5             	mov    %rax,%rbp
  40232f:	4c 39 e3             	cmp    %r12,%rbx
  402332:	72 bc                	jb     4022f0 <rio_readlineb+0x2a>
  402334:	eb 03                	jmp    402339 <rio_readlineb+0x73>
  402336:	48 89 c5             	mov    %rax,%rbp
  402339:	c6 45 00 00          	movb   $0x0,0x0(%rbp)
  40233d:	48 89 d8             	mov    %rbx,%rax
  402340:	eb 0e                	jmp    402350 <rio_readlineb+0x8a>
  402342:	48 c7 c0 ff ff ff ff 	mov    $0xffffffffffffffff,%rax
  402349:	eb 05                	jmp    402350 <rio_readlineb+0x8a>
  40234b:	b8 00 00 00 00       	mov    $0x0,%eax
  402350:	48 8b 4c 24 08       	mov    0x8(%rsp),%rcx
  402355:	64 48 33 0c 25 28 00 	xor    %fs:0x28,%rcx
  40235c:	00 00 
  40235e:	74 05                	je     402365 <rio_readlineb+0x9f>
  402360:	e8 8b e9 ff ff       	callq  400cf0 <__stack_chk_fail@plt>
  402365:	48 83 c4 18          	add    $0x18,%rsp
  402369:	5b                   	pop    %rbx
  40236a:	5d                   	pop    %rbp
  40236b:	41 5c                	pop    %r12
  40236d:	41 5d                	pop    %r13
  40236f:	c3                   	retq   

0000000000402370 <urlencode>:
  402370:	41 54                	push   %r12
  402372:	55                   	push   %rbp
  402373:	53                   	push   %rbx
  402374:	48 83 ec 10          	sub    $0x10,%rsp
  402378:	48 89 fb             	mov    %rdi,%rbx
  40237b:	48 89 f5             	mov    %rsi,%rbp
  40237e:	64 48 8b 04 25 28 00 	mov    %fs:0x28,%rax
  402385:	00 00 
  402387:	48 89 44 24 08       	mov    %rax,0x8(%rsp)
  40238c:	31 c0                	xor    %eax,%eax
  40238e:	48 c7 c1 ff ff ff ff 	mov    $0xffffffffffffffff,%rcx
  402395:	f2 ae                	repnz scas %es:(%rdi),%al
  402397:	48 f7 d1             	not    %rcx
  40239a:	8d 41 ff             	lea    -0x1(%rcx),%eax
  40239d:	e9 aa 00 00 00       	jmpq   40244c <urlencode+0xdc>
  4023a2:	44 0f b6 03          	movzbl (%rbx),%r8d
  4023a6:	41 80 f8 2a          	cmp    $0x2a,%r8b
  4023aa:	0f 94 c2             	sete   %dl
  4023ad:	41 80 f8 2d          	cmp    $0x2d,%r8b
  4023b1:	0f 94 c0             	sete   %al
  4023b4:	08 c2                	or     %al,%dl
  4023b6:	75 24                	jne    4023dc <urlencode+0x6c>
  4023b8:	41 80 f8 2e          	cmp    $0x2e,%r8b
  4023bc:	74 1e                	je     4023dc <urlencode+0x6c>
  4023be:	41 80 f8 5f          	cmp    $0x5f,%r8b
  4023c2:	74 18                	je     4023dc <urlencode+0x6c>
  4023c4:	41 8d 40 d0          	lea    -0x30(%r8),%eax
  4023c8:	3c 09                	cmp    $0x9,%al
  4023ca:	76 10                	jbe    4023dc <urlencode+0x6c>
  4023cc:	41 8d 40 bf          	lea    -0x41(%r8),%eax
  4023d0:	3c 19                	cmp    $0x19,%al
  4023d2:	76 08                	jbe    4023dc <urlencode+0x6c>
  4023d4:	41 8d 40 9f          	lea    -0x61(%r8),%eax
  4023d8:	3c 19                	cmp    $0x19,%al
  4023da:	77 0a                	ja     4023e6 <urlencode+0x76>
  4023dc:	44 88 45 00          	mov    %r8b,0x0(%rbp)
  4023e0:	48 8d 6d 01          	lea    0x1(%rbp),%rbp
  4023e4:	eb 5f                	jmp    402445 <urlencode+0xd5>
  4023e6:	41 80 f8 20          	cmp    $0x20,%r8b
  4023ea:	75 0a                	jne    4023f6 <urlencode+0x86>
  4023ec:	c6 45 00 2b          	movb   $0x2b,0x0(%rbp)
  4023f0:	48 8d 6d 01          	lea    0x1(%rbp),%rbp
  4023f4:	eb 4f                	jmp    402445 <urlencode+0xd5>
  4023f6:	41 8d 40 e0          	lea    -0x20(%r8),%eax
  4023fa:	3c 5f                	cmp    $0x5f,%al
  4023fc:	0f 96 c2             	setbe  %dl
  4023ff:	41 80 f8 09          	cmp    $0x9,%r8b
  402403:	0f 94 c0             	sete   %al
  402406:	08 c2                	or     %al,%dl
  402408:	74 50                	je     40245a <urlencode+0xea>
  40240a:	45 0f b6 c0          	movzbl %r8b,%r8d
  40240e:	b9 50 37 40 00       	mov    $0x403750,%ecx
  402413:	ba 08 00 00 00       	mov    $0x8,%edx
  402418:	be 01 00 00 00       	mov    $0x1,%esi
  40241d:	48 89 e7             	mov    %rsp,%rdi
  402420:	b8 00 00 00 00       	mov    $0x0,%eax
  402425:	e8 56 ea ff ff       	callq  400e80 <__sprintf_chk@plt>
  40242a:	0f b6 04 24          	movzbl (%rsp),%eax
  40242e:	88 45 00             	mov    %al,0x0(%rbp)
  402431:	0f b6 44 24 01       	movzbl 0x1(%rsp),%eax
  402436:	88 45 01             	mov    %al,0x1(%rbp)
  402439:	0f b6 44 24 02       	movzbl 0x2(%rsp),%eax
  40243e:	88 45 02             	mov    %al,0x2(%rbp)
  402441:	48 8d 6d 03          	lea    0x3(%rbp),%rbp
  402445:	48 83 c3 01          	add    $0x1,%rbx
  402449:	44 89 e0             	mov    %r12d,%eax
  40244c:	44 8d 60 ff          	lea    -0x1(%rax),%r12d
  402450:	85 c0                	test   %eax,%eax
  402452:	0f 85 4a ff ff ff    	jne    4023a2 <urlencode+0x32>
  402458:	eb 05                	jmp    40245f <urlencode+0xef>
  40245a:	b8 ff ff ff ff       	mov    $0xffffffff,%eax
  40245f:	48 8b 74 24 08       	mov    0x8(%rsp),%rsi
  402464:	64 48 33 34 25 28 00 	xor    %fs:0x28,%rsi
  40246b:	00 00 
  40246d:	74 05                	je     402474 <urlencode+0x104>
  40246f:	e8 7c e8 ff ff       	callq  400cf0 <__stack_chk_fail@plt>
  402474:	48 83 c4 10          	add    $0x10,%rsp
  402478:	5b                   	pop    %rbx
  402479:	5d                   	pop    %rbp
  40247a:	41 5c                	pop    %r12
  40247c:	c3                   	retq   

000000000040247d <submitr>:
  40247d:	41 57                	push   %r15
  40247f:	41 56                	push   %r14
  402481:	41 55                	push   %r13
  402483:	41 54                	push   %r12
  402485:	55                   	push   %rbp
  402486:	53                   	push   %rbx
  402487:	48 81 ec 58 a0 00 00 	sub    $0xa058,%rsp
  40248e:	49 89 fc             	mov    %rdi,%r12
  402491:	89 74 24 04          	mov    %esi,0x4(%rsp)
  402495:	49 89 d7             	mov    %rdx,%r15
  402498:	49 89 ce             	mov    %rcx,%r14
  40249b:	4c 89 44 24 08       	mov    %r8,0x8(%rsp)
  4024a0:	4d 89 cd             	mov    %r9,%r13
  4024a3:	48 8b 9c 24 90 a0 00 	mov    0xa090(%rsp),%rbx
  4024aa:	00 
  4024ab:	64 48 8b 04 25 28 00 	mov    %fs:0x28,%rax
  4024b2:	00 00 
  4024b4:	48 89 84 24 48 a0 00 	mov    %rax,0xa048(%rsp)
  4024bb:	00 
  4024bc:	31 c0                	xor    %eax,%eax
  4024be:	c7 44 24 1c 00 00 00 	movl   $0x0,0x1c(%rsp)
  4024c5:	00 
  4024c6:	ba 00 00 00 00       	mov    $0x0,%edx
  4024cb:	be 01 00 00 00       	mov    $0x1,%esi
  4024d0:	bf 02 00 00 00       	mov    $0x2,%edi
  4024d5:	e8 b6 e9 ff ff       	callq  400e90 <socket@plt>
  4024da:	85 c0                	test   %eax,%eax
  4024dc:	79 4e                	jns    40252c <submitr+0xaf>
  4024de:	48 b8 45 72 72 6f 72 	movabs $0x43203a726f727245,%rax
  4024e5:	3a 20 43 
  4024e8:	48 89 03             	mov    %rax,(%rbx)
  4024eb:	48 b8 6c 69 65 6e 74 	movabs $0x6e7520746e65696c,%rax
  4024f2:	20 75 6e 
  4024f5:	48 89 43 08          	mov    %rax,0x8(%rbx)
  4024f9:	48 b8 61 62 6c 65 20 	movabs $0x206f7420656c6261,%rax
  402500:	74 6f 20 
  402503:	48 89 43 10          	mov    %rax,0x10(%rbx)
  402507:	48 b8 63 72 65 61 74 	movabs $0x7320657461657263,%rax
  40250e:	65 20 73 
  402511:	48 89 43 18          	mov    %rax,0x18(%rbx)
  402515:	c7 43 20 6f 63 6b 65 	movl   $0x656b636f,0x20(%rbx)
  40251c:	66 c7 43 24 74 00    	movw   $0x74,0x24(%rbx)
  402522:	b8 ff ff ff ff       	mov    $0xffffffff,%eax
  402527:	e9 97 06 00 00       	jmpq   402bc3 <submitr+0x746>
  40252c:	89 c5                	mov    %eax,%ebp
  40252e:	4c 89 e7             	mov    %r12,%rdi
  402531:	e8 3a e8 ff ff       	callq  400d70 <gethostbyname@plt>
  402536:	48 85 c0             	test   %rax,%rax
  402539:	75 67                	jne    4025a2 <submitr+0x125>
  40253b:	48 b8 45 72 72 6f 72 	movabs $0x44203a726f727245,%rax
  402542:	3a 20 44 
  402545:	48 89 03             	mov    %rax,(%rbx)
  402548:	48 b8 4e 53 20 69 73 	movabs $0x6e7520736920534e,%rax
  40254f:	20 75 6e 
  402552:	48 89 43 08          	mov    %rax,0x8(%rbx)
  402556:	48 b8 61 62 6c 65 20 	movabs $0x206f7420656c6261,%rax
  40255d:	74 6f 20 
  402560:	48 89 43 10          	mov    %rax,0x10(%rbx)
  402564:	48 b8 72 65 73 6f 6c 	movabs $0x2065766c6f736572,%rax
  40256b:	76 65 20 
  40256e:	48 89 43 18          	mov    %rax,0x18(%rbx)
  402572:	48 b8 73 65 72 76 65 	movabs $0x6120726576726573,%rax
  402579:	72 20 61 
  40257c:	48 89 43 20          	mov    %rax,0x20(%rbx)
  402580:	c7 43 28 64 64 72 65 	movl   $0x65726464,0x28(%rbx)
  402587:	66 c7 43 2c 73 73    	movw   $0x7373,0x2c(%rbx)
  40258d:	c6 43 2e 00          	movb   $0x0,0x2e(%rbx)
  402591:	89 ef                	mov    %ebp,%edi
  402593:	e8 98 e7 ff ff       	callq  400d30 <close@plt>
  402598:	b8 ff ff ff ff       	mov    $0xffffffff,%eax
  40259d:	e9 21 06 00 00       	jmpq   402bc3 <submitr+0x746>
  4025a2:	48 c7 44 24 20 00 00 	movq   $0x0,0x20(%rsp)
  4025a9:	00 00 
  4025ab:	48 c7 44 24 28 00 00 	movq   $0x0,0x28(%rsp)
  4025b2:	00 00 
  4025b4:	66 c7 44 24 20 02 00 	movw   $0x2,0x20(%rsp)
  4025bb:	48 63 50 14          	movslq 0x14(%rax),%rdx
  4025bf:	48 8b 40 18          	mov    0x18(%rax),%rax
  4025c3:	48 8b 30             	mov    (%rax),%rsi
  4025c6:	48 8d 7c 24 24       	lea    0x24(%rsp),%rdi
  4025cb:	b9 0c 00 00 00       	mov    $0xc,%ecx
  4025d0:	e8 ab e7 ff ff       	callq  400d80 <__memmove_chk@plt>
  4025d5:	0f b7 44 24 04       	movzwl 0x4(%rsp),%eax
  4025da:	66 c1 c8 08          	ror    $0x8,%ax
  4025de:	66 89 44 24 22       	mov    %ax,0x22(%rsp)
  4025e3:	ba 10 00 00 00       	mov    $0x10,%edx
  4025e8:	48 8d 74 24 20       	lea    0x20(%rsp),%rsi
  4025ed:	89 ef                	mov    %ebp,%edi
  4025ef:	e8 6c e8 ff ff       	callq  400e60 <connect@plt>
  4025f4:	85 c0                	test   %eax,%eax
  4025f6:	79 59                	jns    402651 <submitr+0x1d4>
  4025f8:	48 b8 45 72 72 6f 72 	movabs $0x55203a726f727245,%rax
  4025ff:	3a 20 55 
  402602:	48 89 03             	mov    %rax,(%rbx)
  402605:	48 b8 6e 61 62 6c 65 	movabs $0x6f7420656c62616e,%rax
  40260c:	20 74 6f 
  40260f:	48 89 43 08          	mov    %rax,0x8(%rbx)
  402613:	48 b8 20 63 6f 6e 6e 	movabs $0x7463656e6e6f6320,%rax
  40261a:	65 63 74 
  40261d:	48 89 43 10          	mov    %rax,0x10(%rbx)
  402621:	48 b8 20 74 6f 20 74 	movabs $0x20656874206f7420,%rax
  402628:	68 65 20 
  40262b:	48 89 43 18          	mov    %rax,0x18(%rbx)
  40262f:	c7 43 20 73 65 72 76 	movl   $0x76726573,0x20(%rbx)
  402636:	66 c7 43 24 65 72    	movw   $0x7265,0x24(%rbx)
  40263c:	c6 43 26 00          	movb   $0x0,0x26(%rbx)
  402640:	89 ef                	mov    %ebp,%edi
  402642:	e8 e9 e6 ff ff       	callq  400d30 <close@plt>
  402647:	b8 ff ff ff ff       	mov    $0xffffffff,%eax
  40264c:	e9 72 05 00 00       	jmpq   402bc3 <submitr+0x746>
  402651:	48 c7 c6 ff ff ff ff 	mov    $0xffffffffffffffff,%rsi
  402658:	b8 00 00 00 00       	mov    $0x0,%eax
  40265d:	48 89 f1             	mov    %rsi,%rcx
  402660:	4c 89 ef             	mov    %r13,%rdi
  402663:	f2 ae                	repnz scas %es:(%rdi),%al
  402665:	48 f7 d1             	not    %rcx
  402668:	48 89 ca             	mov    %rcx,%rdx
  40266b:	48 89 f1             	mov    %rsi,%rcx
  40266e:	4c 89 ff             	mov    %r15,%rdi
  402671:	f2 ae                	repnz scas %es:(%rdi),%al
  402673:	48 f7 d1             	not    %rcx
  402676:	49 89 c8             	mov    %rcx,%r8
  402679:	48 89 f1             	mov    %rsi,%rcx
  40267c:	4c 89 f7             	mov    %r14,%rdi
  40267f:	f2 ae                	repnz scas %es:(%rdi),%al
  402681:	48 f7 d1             	not    %rcx
  402684:	4d 8d 44 08 fe       	lea    -0x2(%r8,%rcx,1),%r8
  402689:	48 89 f1             	mov    %rsi,%rcx
  40268c:	48 8b 7c 24 08       	mov    0x8(%rsp),%rdi
  402691:	f2 ae                	repnz scas %es:(%rdi),%al
  402693:	48 89 c8             	mov    %rcx,%rax
  402696:	48 f7 d0             	not    %rax
  402699:	49 8d 4c 00 ff       	lea    -0x1(%r8,%rax,1),%rcx
  40269e:	48 8d 44 52 fd       	lea    -0x3(%rdx,%rdx,2),%rax
  4026a3:	48 8d 84 01 80 00 00 	lea    0x80(%rcx,%rax,1),%rax
  4026aa:	00 
  4026ab:	48 3d 00 20 00 00    	cmp    $0x2000,%rax
  4026b1:	76 72                	jbe    402725 <submitr+0x2a8>
  4026b3:	48 b8 45 72 72 6f 72 	movabs $0x52203a726f727245,%rax
  4026ba:	3a 20 52 
  4026bd:	48 89 03             	mov    %rax,(%rbx)
  4026c0:	48 b8 65 73 75 6c 74 	movabs $0x747320746c757365,%rax
  4026c7:	20 73 74 
  4026ca:	48 89 43 08          	mov    %rax,0x8(%rbx)
  4026ce:	48 b8 72 69 6e 67 20 	movabs $0x6f6f7420676e6972,%rax
  4026d5:	74 6f 6f 
  4026d8:	48 89 43 10          	mov    %rax,0x10(%rbx)
  4026dc:	48 b8 20 6c 61 72 67 	movabs $0x202e656772616c20,%rax
  4026e3:	65 2e 20 
  4026e6:	48 89 43 18          	mov    %rax,0x18(%rbx)
  4026ea:	48 b8 49 6e 63 72 65 	movabs $0x6573616572636e49,%rax
  4026f1:	61 73 65 
  4026f4:	48 89 43 20          	mov    %rax,0x20(%rbx)
  4026f8:	48 b8 20 53 55 42 4d 	movabs $0x5254494d42555320,%rax
  4026ff:	49 54 52 
  402702:	48 89 43 28          	mov    %rax,0x28(%rbx)
  402706:	48 b8 5f 4d 41 58 42 	movabs $0x46554258414d5f,%rax
  40270d:	55 46 00 
  402710:	48 89 43 30          	mov    %rax,0x30(%rbx)
  402714:	89 ef                	mov    %ebp,%edi
  402716:	e8 15 e6 ff ff       	callq  400d30 <close@plt>
  40271b:	b8 ff ff ff ff       	mov    $0xffffffff,%eax
  402720:	e9 9e 04 00 00       	jmpq   402bc3 <submitr+0x746>
  402725:	48 8d b4 24 40 40 00 	lea    0x4040(%rsp),%rsi
  40272c:	00 
  40272d:	b9 00 04 00 00       	mov    $0x400,%ecx
  402732:	b8 00 00 00 00       	mov    $0x0,%eax
  402737:	48 89 f7             	mov    %rsi,%rdi
  40273a:	f3 48 ab             	rep stos %rax,%es:(%rdi)
  40273d:	4c 89 ef             	mov    %r13,%rdi
  402740:	e8 2b fc ff ff       	callq  402370 <urlencode>
  402745:	85 c0                	test   %eax,%eax
  402747:	0f 89 8a 00 00 00    	jns    4027d7 <submitr+0x35a>
  40274d:	48 b8 45 72 72 6f 72 	movabs $0x52203a726f727245,%rax
  402754:	3a 20 52 
  402757:	48 89 03             	mov    %rax,(%rbx)
  40275a:	48 b8 65 73 75 6c 74 	movabs $0x747320746c757365,%rax
  402761:	20 73 74 
  402764:	48 89 43 08          	mov    %rax,0x8(%rbx)
  402768:	48 b8 72 69 6e 67 20 	movabs $0x6e6f6320676e6972,%rax
  40276f:	63 6f 6e 
  402772:	48 89 43 10          	mov    %rax,0x10(%rbx)
  402776:	48 b8 74 61 69 6e 73 	movabs $0x6e6120736e696174,%rax
  40277d:	20 61 6e 
  402780:	48 89 43 18          	mov    %rax,0x18(%rbx)
  402784:	48 b8 20 69 6c 6c 65 	movabs $0x6c6167656c6c6920,%rax
  40278b:	67 61 6c 
  40278e:	48 89 43 20          	mov    %rax,0x20(%rbx)
  402792:	48 b8 20 6f 72 20 75 	movabs $0x72706e7520726f20,%rax
  402799:	6e 70 72 
  40279c:	48 89 43 28          	mov    %rax,0x28(%rbx)
  4027a0:	48 b8 69 6e 74 61 62 	movabs $0x20656c6261746e69,%rax
  4027a7:	6c 65 20 
  4027aa:	48 89 43 30          	mov    %rax,0x30(%rbx)
  4027ae:	48 b8 63 68 61 72 61 	movabs $0x6574636172616863,%rax
  4027b5:	63 74 65 
  4027b8:	48 89 43 38          	mov    %rax,0x38(%rbx)
  4027bc:	66 c7 43 40 72 2e    	movw   $0x2e72,0x40(%rbx)
  4027c2:	c6 43 42 00          	movb   $0x0,0x42(%rbx)
  4027c6:	89 ef                	mov    %ebp,%edi
  4027c8:	e8 63 e5 ff ff       	callq  400d30 <close@plt>
  4027cd:	b8 ff ff ff ff       	mov    $0xffffffff,%eax
  4027d2:	e9 ec 03 00 00       	jmpq   402bc3 <submitr+0x746>
  4027d7:	4c 8d ac 24 40 20 00 	lea    0x2040(%rsp),%r13
  4027de:	00 
  4027df:	41 54                	push   %r12
  4027e1:	48 8d 84 24 48 40 00 	lea    0x4048(%rsp),%rax
  4027e8:	00 
  4027e9:	50                   	push   %rax
  4027ea:	4d 89 f9             	mov    %r15,%r9
  4027ed:	4d 89 f0             	mov    %r14,%r8
  4027f0:	b9 a8 36 40 00       	mov    $0x4036a8,%ecx
  4027f5:	ba 00 20 00 00       	mov    $0x2000,%edx
  4027fa:	be 01 00 00 00       	mov    $0x1,%esi
  4027ff:	4c 89 ef             	mov    %r13,%rdi
  402802:	b8 00 00 00 00       	mov    $0x0,%eax
  402807:	e8 74 e6 ff ff       	callq  400e80 <__sprintf_chk@plt>
  40280c:	b8 00 00 00 00       	mov    $0x0,%eax
  402811:	48 c7 c1 ff ff ff ff 	mov    $0xffffffffffffffff,%rcx
  402818:	4c 89 ef             	mov    %r13,%rdi
  40281b:	f2 ae                	repnz scas %es:(%rdi),%al
  40281d:	48 f7 d1             	not    %rcx
  402820:	48 8d 51 ff          	lea    -0x1(%rcx),%rdx
  402824:	4c 89 ee             	mov    %r13,%rsi
  402827:	89 ef                	mov    %ebp,%edi
  402829:	e8 b1 f9 ff ff       	callq  4021df <rio_writen>
  40282e:	48 83 c4 10          	add    $0x10,%rsp
  402832:	48 85 c0             	test   %rax,%rax
  402835:	79 6e                	jns    4028a5 <submitr+0x428>
  402837:	48 b8 45 72 72 6f 72 	movabs $0x43203a726f727245,%rax
  40283e:	3a 20 43 
  402841:	48 89 03             	mov    %rax,(%rbx)
  402844:	48 b8 6c 69 65 6e 74 	movabs $0x6e7520746e65696c,%rax
  40284b:	20 75 6e 
  40284e:	48 89 43 08          	mov    %rax,0x8(%rbx)
  402852:	48 b8 61 62 6c 65 20 	movabs $0x206f7420656c6261,%rax
  402859:	74 6f 20 
  40285c:	48 89 43 10          	mov    %rax,0x10(%rbx)
  402860:	48 b8 77 72 69 74 65 	movabs $0x6f74206574697277,%rax
  402867:	20 74 6f 
  40286a:	48 89 43 18          	mov    %rax,0x18(%rbx)
  40286e:	48 b8 20 74 68 65 20 	movabs $0x7365722065687420,%rax
  402875:	72 65 73 
  402878:	48 89 43 20          	mov    %rax,0x20(%rbx)
  40287c:	48 b8 75 6c 74 20 73 	movabs $0x7672657320746c75,%rax
  402883:	65 72 76 
  402886:	48 89 43 28          	mov    %rax,0x28(%rbx)
  40288a:	66 c7 43 30 65 72    	movw   $0x7265,0x30(%rbx)
  402890:	c6 43 32 00          	movb   $0x0,0x32(%rbx)
  402894:	89 ef                	mov    %ebp,%edi
  402896:	e8 95 e4 ff ff       	callq  400d30 <close@plt>
  40289b:	b8 ff ff ff ff       	mov    $0xffffffff,%eax
  4028a0:	e9 1e 03 00 00       	jmpq   402bc3 <submitr+0x746>
  4028a5:	89 ee                	mov    %ebp,%esi
  4028a7:	48 8d 7c 24 30       	lea    0x30(%rsp),%rdi
  4028ac:	e8 ee f8 ff ff       	callq  40219f <rio_readinitb>
  4028b1:	ba 00 20 00 00       	mov    $0x2000,%edx
  4028b6:	48 8d b4 24 40 20 00 	lea    0x2040(%rsp),%rsi
  4028bd:	00 
  4028be:	48 8d 7c 24 30       	lea    0x30(%rsp),%rdi
  4028c3:	e8 fe f9 ff ff       	callq  4022c6 <rio_readlineb>
  4028c8:	48 85 c0             	test   %rax,%rax
  4028cb:	7f 7d                	jg     40294a <submitr+0x4cd>
  4028cd:	48 b8 45 72 72 6f 72 	movabs $0x43203a726f727245,%rax
  4028d4:	3a 20 43 
  4028d7:	48 89 03             	mov    %rax,(%rbx)
  4028da:	48 b8 6c 69 65 6e 74 	movabs $0x6e7520746e65696c,%rax
  4028e1:	20 75 6e 
  4028e4:	48 89 43 08          	mov    %rax,0x8(%rbx)
  4028e8:	48 b8 61 62 6c 65 20 	movabs $0x206f7420656c6261,%rax
  4028ef:	74 6f 20 
  4028f2:	48 89 43 10          	mov    %rax,0x10(%rbx)
  4028f6:	48 b8 72 65 61 64 20 	movabs $0x7269662064616572,%rax
  4028fd:	66 69 72 
  402900:	48 89 43 18          	mov    %rax,0x18(%rbx)
  402904:	48 b8 73 74 20 68 65 	movabs $0x6564616568207473,%rax
  40290b:	61 64 65 
  40290e:	48 89 43 20          	mov    %rax,0x20(%rbx)
  402912:	48 b8 72 20 66 72 6f 	movabs $0x72206d6f72662072,%rax
  402919:	6d 20 72 
  40291c:	48 89 43 28          	mov    %rax,0x28(%rbx)
  402920:	48 b8 65 73 75 6c 74 	movabs $0x657320746c757365,%rax
  402927:	20 73 65 
  40292a:	48 89 43 30          	mov    %rax,0x30(%rbx)
  40292e:	c7 43 38 72 76 65 72 	movl   $0x72657672,0x38(%rbx)
  402935:	c6 43 3c 00          	movb   $0x0,0x3c(%rbx)
  402939:	89 ef                	mov    %ebp,%edi
  40293b:	e8 f0 e3 ff ff       	callq  400d30 <close@plt>
  402940:	b8 ff ff ff ff       	mov    $0xffffffff,%eax
  402945:	e9 79 02 00 00       	jmpq   402bc3 <submitr+0x746>
  40294a:	4c 8d 84 24 40 80 00 	lea    0x8040(%rsp),%r8
  402951:	00 
  402952:	48 8d 4c 24 1c       	lea    0x1c(%rsp),%rcx
  402957:	48 8d 94 24 40 60 00 	lea    0x6040(%rsp),%rdx
  40295e:	00 
  40295f:	be 57 37 40 00       	mov    $0x403757,%esi
  402964:	48 8d bc 24 40 20 00 	lea    0x2040(%rsp),%rdi
  40296b:	00 
  40296c:	b8 00 00 00 00       	mov    $0x0,%eax
  402971:	e8 6a e4 ff ff       	callq  400de0 <__isoc99_sscanf@plt>
  402976:	e9 95 00 00 00       	jmpq   402a10 <submitr+0x593>
  40297b:	ba 00 20 00 00       	mov    $0x2000,%edx
  402980:	48 8d b4 24 40 20 00 	lea    0x2040(%rsp),%rsi
  402987:	00 
  402988:	48 8d 7c 24 30       	lea    0x30(%rsp),%rdi
  40298d:	e8 34 f9 ff ff       	callq  4022c6 <rio_readlineb>
  402992:	48 85 c0             	test   %rax,%rax
  402995:	7f 79                	jg     402a10 <submitr+0x593>
  402997:	48 b8 45 72 72 6f 72 	movabs $0x43203a726f727245,%rax
  40299e:	3a 20 43 
  4029a1:	48 89 03             	mov    %rax,(%rbx)
  4029a4:	48 b8 6c 69 65 6e 74 	movabs $0x6e7520746e65696c,%rax
  4029ab:	20 75 6e 
  4029ae:	48 89 43 08          	mov    %rax,0x8(%rbx)
  4029b2:	48 b8 61 62 6c 65 20 	movabs $0x206f7420656c6261,%rax
  4029b9:	74 6f 20 
  4029bc:	48 89 43 10          	mov    %rax,0x10(%rbx)
  4029c0:	48 b8 72 65 61 64 20 	movabs $0x6165682064616572,%rax
  4029c7:	68 65 61 
  4029ca:	48 89 43 18          	mov    %rax,0x18(%rbx)
  4029ce:	48 b8 64 65 72 73 20 	movabs $0x6f72662073726564,%rax
  4029d5:	66 72 6f 
  4029d8:	48 89 43 20          	mov    %rax,0x20(%rbx)
  4029dc:	48 b8 6d 20 74 68 65 	movabs $0x657220656874206d,%rax
  4029e3:	20 72 65 
  4029e6:	48 89 43 28          	mov    %rax,0x28(%rbx)
  4029ea:	48 b8 73 75 6c 74 20 	movabs $0x72657320746c7573,%rax
  4029f1:	73 65 72 
  4029f4:	48 89 43 30          	mov    %rax,0x30(%rbx)
  4029f8:	c7 43 38 76 65 72 00 	movl   $0x726576,0x38(%rbx)
  4029ff:	89 ef                	mov    %ebp,%edi
  402a01:	e8 2a e3 ff ff       	callq  400d30 <close@plt>
  402a06:	b8 ff ff ff ff       	mov    $0xffffffff,%eax
  402a0b:	e9 b3 01 00 00       	jmpq   402bc3 <submitr+0x746>
  402a10:	0f b6 94 24 40 20 00 	movzbl 0x2040(%rsp),%edx
  402a17:	00 
  402a18:	b8 0d 00 00 00       	mov    $0xd,%eax
  402a1d:	29 d0                	sub    %edx,%eax
  402a1f:	75 1b                	jne    402a3c <submitr+0x5bf>
  402a21:	0f b6 94 24 41 20 00 	movzbl 0x2041(%rsp),%edx
  402a28:	00 
  402a29:	b8 0a 00 00 00       	mov    $0xa,%eax
  402a2e:	29 d0                	sub    %edx,%eax
  402a30:	75 0a                	jne    402a3c <submitr+0x5bf>
  402a32:	0f b6 84 24 42 20 00 	movzbl 0x2042(%rsp),%eax
  402a39:	00 
  402a3a:	f7 d8                	neg    %eax
  402a3c:	85 c0                	test   %eax,%eax
  402a3e:	0f 85 37 ff ff ff    	jne    40297b <submitr+0x4fe>
  402a44:	ba 00 20 00 00       	mov    $0x2000,%edx
  402a49:	48 8d b4 24 40 20 00 	lea    0x2040(%rsp),%rsi
  402a50:	00 
  402a51:	48 8d 7c 24 30       	lea    0x30(%rsp),%rdi
  402a56:	e8 6b f8 ff ff       	callq  4022c6 <rio_readlineb>
  402a5b:	48 85 c0             	test   %rax,%rax
  402a5e:	0f 8f 83 00 00 00    	jg     402ae7 <submitr+0x66a>
  402a64:	48 b8 45 72 72 6f 72 	movabs $0x43203a726f727245,%rax
  402a6b:	3a 20 43 
  402a6e:	48 89 03             	mov    %rax,(%rbx)
  402a71:	48 b8 6c 69 65 6e 74 	movabs $0x6e7520746e65696c,%rax
  402a78:	20 75 6e 
  402a7b:	48 89 43 08          	mov    %rax,0x8(%rbx)
  402a7f:	48 b8 61 62 6c 65 20 	movabs $0x206f7420656c6261,%rax
  402a86:	74 6f 20 
  402a89:	48 89 43 10          	mov    %rax,0x10(%rbx)
  402a8d:	48 b8 72 65 61 64 20 	movabs $0x6174732064616572,%rax
  402a94:	73 74 61 
  402a97:	48 89 43 18          	mov    %rax,0x18(%rbx)
  402a9b:	48 b8 74 75 73 20 6d 	movabs $0x7373656d20737574,%rax
  402aa2:	65 73 73 
  402aa5:	48 89 43 20          	mov    %rax,0x20(%rbx)
  402aa9:	48 b8 61 67 65 20 66 	movabs $0x6d6f726620656761,%rax
  402ab0:	72 6f 6d 
  402ab3:	48 89 43 28          	mov    %rax,0x28(%rbx)
  402ab7:	48 b8 20 72 65 73 75 	movabs $0x20746c7573657220,%rax
  402abe:	6c 74 20 
  402ac1:	48 89 43 30          	mov    %rax,0x30(%rbx)
  402ac5:	c7 43 38 73 65 72 76 	movl   $0x76726573,0x38(%rbx)
  402acc:	66 c7 43 3c 65 72    	movw   $0x7265,0x3c(%rbx)
  402ad2:	c6 43 3e 00          	movb   $0x0,0x3e(%rbx)
  402ad6:	89 ef                	mov    %ebp,%edi
  402ad8:	e8 53 e2 ff ff       	callq  400d30 <close@plt>
  402add:	b8 ff ff ff ff       	mov    $0xffffffff,%eax
  402ae2:	e9 dc 00 00 00       	jmpq   402bc3 <submitr+0x746>
  402ae7:	44 8b 44 24 1c       	mov    0x1c(%rsp),%r8d
  402aec:	41 81 f8 c8 00 00 00 	cmp    $0xc8,%r8d
  402af3:	74 37                	je     402b2c <submitr+0x6af>
  402af5:	4c 8d 8c 24 40 80 00 	lea    0x8040(%rsp),%r9
  402afc:	00 
  402afd:	b9 e8 36 40 00       	mov    $0x4036e8,%ecx
  402b02:	48 c7 c2 ff ff ff ff 	mov    $0xffffffffffffffff,%rdx
  402b09:	be 01 00 00 00       	mov    $0x1,%esi
  402b0e:	48 89 df             	mov    %rbx,%rdi
  402b11:	b8 00 00 00 00       	mov    $0x0,%eax
  402b16:	e8 65 e3 ff ff       	callq  400e80 <__sprintf_chk@plt>
  402b1b:	89 ef                	mov    %ebp,%edi
  402b1d:	e8 0e e2 ff ff       	callq  400d30 <close@plt>
  402b22:	b8 ff ff ff ff       	mov    $0xffffffff,%eax
  402b27:	e9 97 00 00 00       	jmpq   402bc3 <submitr+0x746>
  402b2c:	48 8d b4 24 40 20 00 	lea    0x2040(%rsp),%rsi
  402b33:	00 
  402b34:	48 89 df             	mov    %rbx,%rdi
  402b37:	e8 84 e1 ff ff       	callq  400cc0 <strcpy@plt>
  402b3c:	89 ef                	mov    %ebp,%edi
  402b3e:	e8 ed e1 ff ff       	callq  400d30 <close@plt>
  402b43:	0f b6 03             	movzbl (%rbx),%eax
  402b46:	ba 4f 00 00 00       	mov    $0x4f,%edx
  402b4b:	29 c2                	sub    %eax,%edx
  402b4d:	75 22                	jne    402b71 <submitr+0x6f4>
  402b4f:	0f b6 4b 01          	movzbl 0x1(%rbx),%ecx
  402b53:	b8 4b 00 00 00       	mov    $0x4b,%eax
  402b58:	29 c8                	sub    %ecx,%eax
  402b5a:	75 17                	jne    402b73 <submitr+0x6f6>
  402b5c:	0f b6 4b 02          	movzbl 0x2(%rbx),%ecx
  402b60:	b8 0a 00 00 00       	mov    $0xa,%eax
  402b65:	29 c8                	sub    %ecx,%eax
  402b67:	75 0a                	jne    402b73 <submitr+0x6f6>
  402b69:	0f b6 43 03          	movzbl 0x3(%rbx),%eax
  402b6d:	f7 d8                	neg    %eax
  402b6f:	eb 02                	jmp    402b73 <submitr+0x6f6>
  402b71:	89 d0                	mov    %edx,%eax
  402b73:	85 c0                	test   %eax,%eax
  402b75:	74 40                	je     402bb7 <submitr+0x73a>
  402b77:	bf 68 37 40 00       	mov    $0x403768,%edi
  402b7c:	b9 05 00 00 00       	mov    $0x5,%ecx
  402b81:	48 89 de             	mov    %rbx,%rsi
  402b84:	f3 a6                	repz cmpsb %es:(%rdi),%ds:(%rsi)
  402b86:	0f 97 c0             	seta   %al
  402b89:	0f 92 c1             	setb   %cl
  402b8c:	29 c8                	sub    %ecx,%eax
  402b8e:	0f be c0             	movsbl %al,%eax
  402b91:	85 c0                	test   %eax,%eax
  402b93:	74 2e                	je     402bc3 <submitr+0x746>
  402b95:	85 d2                	test   %edx,%edx
  402b97:	75 13                	jne    402bac <submitr+0x72f>
  402b99:	0f b6 43 01          	movzbl 0x1(%rbx),%eax
  402b9d:	ba 4b 00 00 00       	mov    $0x4b,%edx
  402ba2:	29 c2                	sub    %eax,%edx
  402ba4:	75 06                	jne    402bac <submitr+0x72f>
  402ba6:	0f b6 53 02          	movzbl 0x2(%rbx),%edx
  402baa:	f7 da                	neg    %edx
  402bac:	85 d2                	test   %edx,%edx
  402bae:	75 0e                	jne    402bbe <submitr+0x741>
  402bb0:	b8 00 00 00 00       	mov    $0x0,%eax
  402bb5:	eb 0c                	jmp    402bc3 <submitr+0x746>
  402bb7:	b8 00 00 00 00       	mov    $0x0,%eax
  402bbc:	eb 05                	jmp    402bc3 <submitr+0x746>
  402bbe:	b8 ff ff ff ff       	mov    $0xffffffff,%eax
  402bc3:	48 8b 9c 24 48 a0 00 	mov    0xa048(%rsp),%rbx
  402bca:	00 
  402bcb:	64 48 33 1c 25 28 00 	xor    %fs:0x28,%rbx
  402bd2:	00 00 
  402bd4:	74 05                	je     402bdb <submitr+0x75e>
  402bd6:	e8 15 e1 ff ff       	callq  400cf0 <__stack_chk_fail@plt>
  402bdb:	48 81 c4 58 a0 00 00 	add    $0xa058,%rsp
  402be2:	5b                   	pop    %rbx
  402be3:	5d                   	pop    %rbp
  402be4:	41 5c                	pop    %r12
  402be6:	41 5d                	pop    %r13
  402be8:	41 5e                	pop    %r14
  402bea:	41 5f                	pop    %r15
  402bec:	c3                   	retq   

0000000000402bed <init_timeout>:
  402bed:	85 ff                	test   %edi,%edi
  402bef:	74 23                	je     402c14 <init_timeout+0x27>
  402bf1:	53                   	push   %rbx
  402bf2:	89 fb                	mov    %edi,%ebx
  402bf4:	85 ff                	test   %edi,%edi
  402bf6:	79 05                	jns    402bfd <init_timeout+0x10>
  402bf8:	bb 00 00 00 00       	mov    $0x0,%ebx
  402bfd:	be b1 21 40 00       	mov    $0x4021b1,%esi
  402c02:	bf 0e 00 00 00       	mov    $0xe,%edi
  402c07:	e8 54 e1 ff ff       	callq  400d60 <signal@plt>
  402c0c:	89 df                	mov    %ebx,%edi
  402c0e:	e8 0d e1 ff ff       	callq  400d20 <alarm@plt>
  402c13:	5b                   	pop    %rbx
  402c14:	f3 c3                	repz retq 

0000000000402c16 <init_driver>:
  402c16:	55                   	push   %rbp
  402c17:	53                   	push   %rbx
  402c18:	48 83 ec 28          	sub    $0x28,%rsp
  402c1c:	48 89 fd             	mov    %rdi,%rbp
  402c1f:	64 48 8b 04 25 28 00 	mov    %fs:0x28,%rax
  402c26:	00 00 
  402c28:	48 89 44 24 18       	mov    %rax,0x18(%rsp)
  402c2d:	31 c0                	xor    %eax,%eax
  402c2f:	be 01 00 00 00       	mov    $0x1,%esi
  402c34:	bf 0d 00 00 00       	mov    $0xd,%edi
  402c39:	e8 22 e1 ff ff       	callq  400d60 <signal@plt>
  402c3e:	be 01 00 00 00       	mov    $0x1,%esi
  402c43:	bf 1d 00 00 00       	mov    $0x1d,%edi
  402c48:	e8 13 e1 ff ff       	callq  400d60 <signal@plt>
  402c4d:	be 01 00 00 00       	mov    $0x1,%esi
  402c52:	bf 1d 00 00 00       	mov    $0x1d,%edi
  402c57:	e8 04 e1 ff ff       	callq  400d60 <signal@plt>
  402c5c:	ba 00 00 00 00       	mov    $0x0,%edx
  402c61:	be 01 00 00 00       	mov    $0x1,%esi
  402c66:	bf 02 00 00 00       	mov    $0x2,%edi
  402c6b:	e8 20 e2 ff ff       	callq  400e90 <socket@plt>
  402c70:	85 c0                	test   %eax,%eax
  402c72:	79 4f                	jns    402cc3 <init_driver+0xad>
  402c74:	48 b8 45 72 72 6f 72 	movabs $0x43203a726f727245,%rax
  402c7b:	3a 20 43 
  402c7e:	48 89 45 00          	mov    %rax,0x0(%rbp)
  402c82:	48 b8 6c 69 65 6e 74 	movabs $0x6e7520746e65696c,%rax
  402c89:	20 75 6e 
  402c8c:	48 89 45 08          	mov    %rax,0x8(%rbp)
  402c90:	48 b8 61 62 6c 65 20 	movabs $0x206f7420656c6261,%rax
  402c97:	74 6f 20 
  402c9a:	48 89 45 10          	mov    %rax,0x10(%rbp)
  402c9e:	48 b8 63 72 65 61 74 	movabs $0x7320657461657263,%rax
  402ca5:	65 20 73 
  402ca8:	48 89 45 18          	mov    %rax,0x18(%rbp)
  402cac:	c7 45 20 6f 63 6b 65 	movl   $0x656b636f,0x20(%rbp)
  402cb3:	66 c7 45 24 74 00    	movw   $0x74,0x24(%rbp)
  402cb9:	b8 ff ff ff ff       	mov    $0xffffffff,%eax
  402cbe:	e9 4c 01 00 00       	jmpq   402e0f <init_driver+0x1f9>
  402cc3:	89 c3                	mov    %eax,%ebx
  402cc5:	bf 18 37 40 00       	mov    $0x403718,%edi
  402cca:	e8 a1 e0 ff ff       	callq  400d70 <gethostbyname@plt>
  402ccf:	48 85 c0             	test   %rax,%rax
  402cd2:	75 68                	jne    402d3c <init_driver+0x126>
  402cd4:	48 b8 45 72 72 6f 72 	movabs $0x44203a726f727245,%rax
  402cdb:	3a 20 44 
  402cde:	48 89 45 00          	mov    %rax,0x0(%rbp)
  402ce2:	48 b8 4e 53 20 69 73 	movabs $0x6e7520736920534e,%rax
  402ce9:	20 75 6e 
  402cec:	48 89 45 08          	mov    %rax,0x8(%rbp)
  402cf0:	48 b8 61 62 6c 65 20 	movabs $0x206f7420656c6261,%rax
  402cf7:	74 6f 20 
  402cfa:	48 89 45 10          	mov    %rax,0x10(%rbp)
  402cfe:	48 b8 72 65 73 6f 6c 	movabs $0x2065766c6f736572,%rax
  402d05:	76 65 20 
  402d08:	48 89 45 18          	mov    %rax,0x18(%rbp)
  402d0c:	48 b8 73 65 72 76 65 	movabs $0x6120726576726573,%rax
  402d13:	72 20 61 
  402d16:	48 89 45 20          	mov    %rax,0x20(%rbp)
  402d1a:	c7 45 28 64 64 72 65 	movl   $0x65726464,0x28(%rbp)
  402d21:	66 c7 45 2c 73 73    	movw   $0x7373,0x2c(%rbp)
  402d27:	c6 45 2e 00          	movb   $0x0,0x2e(%rbp)
  402d2b:	89 df                	mov    %ebx,%edi
  402d2d:	e8 fe df ff ff       	callq  400d30 <close@plt>
  402d32:	b8 ff ff ff ff       	mov    $0xffffffff,%eax
  402d37:	e9 d3 00 00 00       	jmpq   402e0f <init_driver+0x1f9>
  402d3c:	48 c7 04 24 00 00 00 	movq   $0x0,(%rsp)
  402d43:	00 
  402d44:	48 c7 44 24 08 00 00 	movq   $0x0,0x8(%rsp)
  402d4b:	00 00 
  402d4d:	66 c7 04 24 02 00    	movw   $0x2,(%rsp)
  402d53:	48 63 50 14          	movslq 0x14(%rax),%rdx
  402d57:	48 8b 40 18          	mov    0x18(%rax),%rax
  402d5b:	48 8b 30             	mov    (%rax),%rsi
  402d5e:	48 8d 7c 24 04       	lea    0x4(%rsp),%rdi
  402d63:	b9 0c 00 00 00       	mov    $0xc,%ecx
  402d68:	e8 13 e0 ff ff       	callq  400d80 <__memmove_chk@plt>
  402d6d:	66 c7 44 24 02 3c 9a 	movw   $0x9a3c,0x2(%rsp)
  402d74:	ba 10 00 00 00       	mov    $0x10,%edx
  402d79:	48 89 e6             	mov    %rsp,%rsi
  402d7c:	89 df                	mov    %ebx,%edi
  402d7e:	e8 dd e0 ff ff       	callq  400e60 <connect@plt>
  402d83:	85 c0                	test   %eax,%eax
  402d85:	79 72                	jns    402df9 <init_driver+0x1e3>
  402d87:	48 b8 75 74 65 2e 61 	movabs $0x7a616d612e657475,%rax
  402d8e:	6d 61 7a 
  402d91:	48 89 45 20          	mov    %rax,0x20(%rbp)
  402d95:	48 b8 6f 6e 61 77 73 	movabs $0x6f632e7377616e6f,%rax
  402d9c:	2e 63 6f 
  402d9f:	48 89 45 28          	mov    %rax,0x28(%rbp)
  402da3:	66 c7 45 30 6d 00    	movw   $0x6d,0x30(%rbp)
  402da9:	48 b8 45 72 72 6f 72 	movabs $0x55203a726f727245,%rax
  402db0:	3a 20 55 
  402db3:	48 89 45 00          	mov    %rax,0x0(%rbp)
  402db7:	48 b8 6e 61 62 6c 65 	movabs $0x6f7420656c62616e,%rax
  402dbe:	20 74 6f 
  402dc1:	48 89 45 08          	mov    %rax,0x8(%rbp)
  402dc5:	48 b8 20 63 6f 6e 6e 	movabs $0x7463656e6e6f6320,%rax
  402dcc:	65 63 74 
  402dcf:	48 89 45 10          	mov    %rax,0x10(%rbp)
  402dd3:	48 b8 20 74 6f 20 73 	movabs $0x76726573206f7420,%rax
  402dda:	65 72 76 
  402ddd:	48 89 45 18          	mov    %rax,0x18(%rbp)
  402de1:	66 c7 45 20 65 72    	movw   $0x7265,0x20(%rbp)
  402de7:	c6 45 22 00          	movb   $0x0,0x22(%rbp)
  402deb:	89 df                	mov    %ebx,%edi
  402ded:	e8 3e df ff ff       	callq  400d30 <close@plt>
  402df2:	b8 ff ff ff ff       	mov    $0xffffffff,%eax
  402df7:	eb 16                	jmp    402e0f <init_driver+0x1f9>
  402df9:	89 df                	mov    %ebx,%edi
  402dfb:	e8 30 df ff ff       	callq  400d30 <close@plt>
  402e00:	66 c7 45 00 4f 4b    	movw   $0x4b4f,0x0(%rbp)
  402e06:	c6 45 02 00          	movb   $0x0,0x2(%rbp)
  402e0a:	b8 00 00 00 00       	mov    $0x0,%eax
  402e0f:	48 8b 4c 24 18       	mov    0x18(%rsp),%rcx
  402e14:	64 48 33 0c 25 28 00 	xor    %fs:0x28,%rcx
  402e1b:	00 00 
  402e1d:	74 05                	je     402e24 <init_driver+0x20e>
  402e1f:	e8 cc de ff ff       	callq  400cf0 <__stack_chk_fail@plt>
  402e24:	48 83 c4 28          	add    $0x28,%rsp
  402e28:	5b                   	pop    %rbx
  402e29:	5d                   	pop    %rbp
  402e2a:	c3                   	retq   

0000000000402e2b <driver_post>:
  402e2b:	53                   	push   %rbx
  402e2c:	4c 89 cb             	mov    %r9,%rbx
  402e2f:	45 85 c0             	test   %r8d,%r8d
  402e32:	74 27                	je     402e5b <driver_post+0x30>
  402e34:	48 89 ca             	mov    %rcx,%rdx
  402e37:	be 6d 37 40 00       	mov    $0x40376d,%esi
  402e3c:	bf 01 00 00 00       	mov    $0x1,%edi
  402e41:	b8 00 00 00 00       	mov    $0x0,%eax
  402e46:	e8 b5 df ff ff       	callq  400e00 <__printf_chk@plt>
  402e4b:	66 c7 03 4f 4b       	movw   $0x4b4f,(%rbx)
  402e50:	c6 43 02 00          	movb   $0x0,0x2(%rbx)
  402e54:	b8 00 00 00 00       	mov    $0x0,%eax
  402e59:	eb 3f                	jmp    402e9a <driver_post+0x6f>
  402e5b:	48 85 ff             	test   %rdi,%rdi
  402e5e:	74 2c                	je     402e8c <driver_post+0x61>
  402e60:	80 3f 00             	cmpb   $0x0,(%rdi)
  402e63:	74 27                	je     402e8c <driver_post+0x61>
  402e65:	48 83 ec 08          	sub    $0x8,%rsp
  402e69:	41 51                	push   %r9
  402e6b:	49 89 c9             	mov    %rcx,%r9
  402e6e:	49 89 d0             	mov    %rdx,%r8
  402e71:	48 89 f9             	mov    %rdi,%rcx
  402e74:	48 89 f2             	mov    %rsi,%rdx
  402e77:	be 9a 3c 00 00       	mov    $0x3c9a,%esi
  402e7c:	bf 18 37 40 00       	mov    $0x403718,%edi
  402e81:	e8 f7 f5 ff ff       	callq  40247d <submitr>
  402e86:	48 83 c4 10          	add    $0x10,%rsp
  402e8a:	eb 0e                	jmp    402e9a <driver_post+0x6f>
  402e8c:	66 c7 03 4f 4b       	movw   $0x4b4f,(%rbx)
  402e91:	c6 43 02 00          	movb   $0x0,0x2(%rbx)
  402e95:	b8 00 00 00 00       	mov    $0x0,%eax
  402e9a:	5b                   	pop    %rbx
  402e9b:	c3                   	retq   

0000000000402e9c <check>:
  402e9c:	89 f8                	mov    %edi,%eax
  402e9e:	c1 e8 1c             	shr    $0x1c,%eax
  402ea1:	85 c0                	test   %eax,%eax
  402ea3:	74 1d                	je     402ec2 <check+0x26>
  402ea5:	b9 00 00 00 00       	mov    $0x0,%ecx
  402eaa:	eb 0b                	jmp    402eb7 <check+0x1b>
  402eac:	89 f8                	mov    %edi,%eax
  402eae:	d3 e8                	shr    %cl,%eax
  402eb0:	3c 0a                	cmp    $0xa,%al
  402eb2:	74 14                	je     402ec8 <check+0x2c>
  402eb4:	83 c1 08             	add    $0x8,%ecx
  402eb7:	83 f9 1f             	cmp    $0x1f,%ecx
  402eba:	7e f0                	jle    402eac <check+0x10>
  402ebc:	b8 01 00 00 00       	mov    $0x1,%eax
  402ec1:	c3                   	retq   
  402ec2:	b8 00 00 00 00       	mov    $0x0,%eax
  402ec7:	c3                   	retq   
  402ec8:	b8 00 00 00 00       	mov    $0x0,%eax
  402ecd:	c3                   	retq   

0000000000402ece <gencookie>:
  402ece:	53                   	push   %rbx
  402ecf:	83 c7 01             	add    $0x1,%edi
  402ed2:	e8 c9 dd ff ff       	callq  400ca0 <srandom@plt>
  402ed7:	e8 e4 de ff ff       	callq  400dc0 <random@plt>
  402edc:	89 c3                	mov    %eax,%ebx
  402ede:	89 c7                	mov    %eax,%edi
  402ee0:	e8 b7 ff ff ff       	callq  402e9c <check>
  402ee5:	85 c0                	test   %eax,%eax
  402ee7:	74 ee                	je     402ed7 <gencookie+0x9>
  402ee9:	89 d8                	mov    %ebx,%eax
  402eeb:	5b                   	pop    %rbx
  402eec:	c3                   	retq   
  402eed:	0f 1f 00             	nopl   (%rax)

0000000000402ef0 <__libc_csu_init>:
  402ef0:	41 57                	push   %r15
  402ef2:	41 56                	push   %r14
  402ef4:	41 89 ff             	mov    %edi,%r15d
  402ef7:	41 55                	push   %r13
  402ef9:	41 54                	push   %r12
  402efb:	4c 8d 25 0e 1f 20 00 	lea    0x201f0e(%rip),%r12        # 604e10 <__frame_dummy_init_array_entry>
  402f02:	55                   	push   %rbp
  402f03:	48 8d 2d 0e 1f 20 00 	lea    0x201f0e(%rip),%rbp        # 604e18 <__init_array_end>
  402f0a:	53                   	push   %rbx
  402f0b:	49 89 f6             	mov    %rsi,%r14
  402f0e:	49 89 d5             	mov    %rdx,%r13
  402f11:	4c 29 e5             	sub    %r12,%rbp
  402f14:	48 83 ec 08          	sub    $0x8,%rsp
  402f18:	48 c1 fd 03          	sar    $0x3,%rbp
  402f1c:	e8 27 dd ff ff       	callq  400c48 <_init>
  402f21:	48 85 ed             	test   %rbp,%rbp
  402f24:	74 20                	je     402f46 <__libc_csu_init+0x56>
  402f26:	31 db                	xor    %ebx,%ebx
  402f28:	0f 1f 84 00 00 00 00 	nopl   0x0(%rax,%rax,1)
  402f2f:	00 
  402f30:	4c 89 ea             	mov    %r13,%rdx
  402f33:	4c 89 f6             	mov    %r14,%rsi
  402f36:	44 89 ff             	mov    %r15d,%edi
  402f39:	41 ff 14 dc          	callq  *(%r12,%rbx,8)
  402f3d:	48 83 c3 01          	add    $0x1,%rbx
  402f41:	48 39 eb             	cmp    %rbp,%rbx
  402f44:	75 ea                	jne    402f30 <__libc_csu_init+0x40>
  402f46:	48 83 c4 08          	add    $0x8,%rsp
  402f4a:	5b                   	pop    %rbx
  402f4b:	5d                   	pop    %rbp
  402f4c:	41 5c                	pop    %r12
  402f4e:	41 5d                	pop    %r13
  402f50:	41 5e                	pop    %r14
  402f52:	41 5f                	pop    %r15
  402f54:	c3                   	retq   
  402f55:	90                   	nop
  402f56:	66 2e 0f 1f 84 00 00 	nopw   %cs:0x0(%rax,%rax,1)
  402f5d:	00 00 00 

0000000000402f60 <__libc_csu_fini>:
  402f60:	f3 c3                	repz retq 

Disassembly of section .fini:

0000000000402f64 <_fini>:
  402f64:	48 83 ec 08          	sub    $0x8,%rsp
  402f68:	48 83 c4 08          	add    $0x8,%rsp
  402f6c:	c3                   	retq   
