
rtarget:     file format elf64-x86-64


Disassembly of section .init:

0000000000400c48 <_init>:
  400c48:	48 83 ec 08          	sub    $0x8,%rsp
  400c4c:	48 8b 05 a5 43 20 00 	mov    0x2043a5(%rip),%rax        # 604ff8 <_DYNAMIC+0x1d0>
  400c53:	48 85 c0             	test   %rax,%rax
  400c56:	74 05                	je     400c5d <_init+0x15>
  400c58:	e8 43 02 00 00       	callq  400ea0 <socket@plt+0x10>
  400c5d:	48 83 c4 08          	add    $0x8,%rsp
  400c61:	c3                   	retq   

Disassembly of section .plt:

0000000000400c70 <strcasecmp@plt-0x10>:
  400c70:	ff 35 92 43 20 00    	pushq  0x204392(%rip)        # 605008 <_GLOBAL_OFFSET_TABLE_+0x8>
  400c76:	ff 25 94 43 20 00    	jmpq   *0x204394(%rip)        # 605010 <_GLOBAL_OFFSET_TABLE_+0x10>
  400c7c:	0f 1f 40 00          	nopl   0x0(%rax)

0000000000400c80 <strcasecmp@plt>:
  400c80:	ff 25 92 43 20 00    	jmpq   *0x204392(%rip)        # 605018 <_GLOBAL_OFFSET_TABLE_+0x18>
  400c86:	68 00 00 00 00       	pushq  $0x0
  400c8b:	e9 e0 ff ff ff       	jmpq   400c70 <_init+0x28>

0000000000400c90 <__errno_location@plt>:
  400c90:	ff 25 8a 43 20 00    	jmpq   *0x20438a(%rip)        # 605020 <_GLOBAL_OFFSET_TABLE_+0x20>
  400c96:	68 01 00 00 00       	pushq  $0x1
  400c9b:	e9 d0 ff ff ff       	jmpq   400c70 <_init+0x28>

0000000000400ca0 <srandom@plt>:
  400ca0:	ff 25 82 43 20 00    	jmpq   *0x204382(%rip)        # 605028 <_GLOBAL_OFFSET_TABLE_+0x28>
  400ca6:	68 02 00 00 00       	pushq  $0x2
  400cab:	e9 c0 ff ff ff       	jmpq   400c70 <_init+0x28>

0000000000400cb0 <strncmp@plt>:
  400cb0:	ff 25 7a 43 20 00    	jmpq   *0x20437a(%rip)        # 605030 <_GLOBAL_OFFSET_TABLE_+0x30>
  400cb6:	68 03 00 00 00       	pushq  $0x3
  400cbb:	e9 b0 ff ff ff       	jmpq   400c70 <_init+0x28>

0000000000400cc0 <strcpy@plt>:
  400cc0:	ff 25 72 43 20 00    	jmpq   *0x204372(%rip)        # 605038 <_GLOBAL_OFFSET_TABLE_+0x38>
  400cc6:	68 04 00 00 00       	pushq  $0x4
  400ccb:	e9 a0 ff ff ff       	jmpq   400c70 <_init+0x28>

0000000000400cd0 <puts@plt>:
  400cd0:	ff 25 6a 43 20 00    	jmpq   *0x20436a(%rip)        # 605040 <_GLOBAL_OFFSET_TABLE_+0x40>
  400cd6:	68 05 00 00 00       	pushq  $0x5
  400cdb:	e9 90 ff ff ff       	jmpq   400c70 <_init+0x28>

0000000000400ce0 <write@plt>:
  400ce0:	ff 25 62 43 20 00    	jmpq   *0x204362(%rip)        # 605048 <_GLOBAL_OFFSET_TABLE_+0x48>
  400ce6:	68 06 00 00 00       	pushq  $0x6
  400ceb:	e9 80 ff ff ff       	jmpq   400c70 <_init+0x28>

0000000000400cf0 <__stack_chk_fail@plt>:
  400cf0:	ff 25 5a 43 20 00    	jmpq   *0x20435a(%rip)        # 605050 <_GLOBAL_OFFSET_TABLE_+0x50>
  400cf6:	68 07 00 00 00       	pushq  $0x7
  400cfb:	e9 70 ff ff ff       	jmpq   400c70 <_init+0x28>

0000000000400d00 <mmap@plt>:
  400d00:	ff 25 52 43 20 00    	jmpq   *0x204352(%rip)        # 605058 <_GLOBAL_OFFSET_TABLE_+0x58>
  400d06:	68 08 00 00 00       	pushq  $0x8
  400d0b:	e9 60 ff ff ff       	jmpq   400c70 <_init+0x28>

0000000000400d10 <memset@plt>:
  400d10:	ff 25 4a 43 20 00    	jmpq   *0x20434a(%rip)        # 605060 <_GLOBAL_OFFSET_TABLE_+0x60>
  400d16:	68 09 00 00 00       	pushq  $0x9
  400d1b:	e9 50 ff ff ff       	jmpq   400c70 <_init+0x28>

0000000000400d20 <alarm@plt>:
  400d20:	ff 25 42 43 20 00    	jmpq   *0x204342(%rip)        # 605068 <_GLOBAL_OFFSET_TABLE_+0x68>
  400d26:	68 0a 00 00 00       	pushq  $0xa
  400d2b:	e9 40 ff ff ff       	jmpq   400c70 <_init+0x28>

0000000000400d30 <close@plt>:
  400d30:	ff 25 3a 43 20 00    	jmpq   *0x20433a(%rip)        # 605070 <_GLOBAL_OFFSET_TABLE_+0x70>
  400d36:	68 0b 00 00 00       	pushq  $0xb
  400d3b:	e9 30 ff ff ff       	jmpq   400c70 <_init+0x28>

0000000000400d40 <read@plt>:
  400d40:	ff 25 32 43 20 00    	jmpq   *0x204332(%rip)        # 605078 <_GLOBAL_OFFSET_TABLE_+0x78>
  400d46:	68 0c 00 00 00       	pushq  $0xc
  400d4b:	e9 20 ff ff ff       	jmpq   400c70 <_init+0x28>

0000000000400d50 <__libc_start_main@plt>:
  400d50:	ff 25 2a 43 20 00    	jmpq   *0x20432a(%rip)        # 605080 <_GLOBAL_OFFSET_TABLE_+0x80>
  400d56:	68 0d 00 00 00       	pushq  $0xd
  400d5b:	e9 10 ff ff ff       	jmpq   400c70 <_init+0x28>

0000000000400d60 <signal@plt>:
  400d60:	ff 25 22 43 20 00    	jmpq   *0x204322(%rip)        # 605088 <_GLOBAL_OFFSET_TABLE_+0x88>
  400d66:	68 0e 00 00 00       	pushq  $0xe
  400d6b:	e9 00 ff ff ff       	jmpq   400c70 <_init+0x28>

0000000000400d70 <gethostbyname@plt>:
  400d70:	ff 25 1a 43 20 00    	jmpq   *0x20431a(%rip)        # 605090 <_GLOBAL_OFFSET_TABLE_+0x90>
  400d76:	68 0f 00 00 00       	pushq  $0xf
  400d7b:	e9 f0 fe ff ff       	jmpq   400c70 <_init+0x28>

0000000000400d80 <__memmove_chk@plt>:
  400d80:	ff 25 12 43 20 00    	jmpq   *0x204312(%rip)        # 605098 <_GLOBAL_OFFSET_TABLE_+0x98>
  400d86:	68 10 00 00 00       	pushq  $0x10
  400d8b:	e9 e0 fe ff ff       	jmpq   400c70 <_init+0x28>

0000000000400d90 <strtol@plt>:
  400d90:	ff 25 0a 43 20 00    	jmpq   *0x20430a(%rip)        # 6050a0 <_GLOBAL_OFFSET_TABLE_+0xa0>
  400d96:	68 11 00 00 00       	pushq  $0x11
  400d9b:	e9 d0 fe ff ff       	jmpq   400c70 <_init+0x28>

0000000000400da0 <memcpy@plt>:
  400da0:	ff 25 02 43 20 00    	jmpq   *0x204302(%rip)        # 6050a8 <_GLOBAL_OFFSET_TABLE_+0xa8>
  400da6:	68 12 00 00 00       	pushq  $0x12
  400dab:	e9 c0 fe ff ff       	jmpq   400c70 <_init+0x28>

0000000000400db0 <time@plt>:
  400db0:	ff 25 fa 42 20 00    	jmpq   *0x2042fa(%rip)        # 6050b0 <_GLOBAL_OFFSET_TABLE_+0xb0>
  400db6:	68 13 00 00 00       	pushq  $0x13
  400dbb:	e9 b0 fe ff ff       	jmpq   400c70 <_init+0x28>

0000000000400dc0 <random@plt>:
  400dc0:	ff 25 f2 42 20 00    	jmpq   *0x2042f2(%rip)        # 6050b8 <_GLOBAL_OFFSET_TABLE_+0xb8>
  400dc6:	68 14 00 00 00       	pushq  $0x14
  400dcb:	e9 a0 fe ff ff       	jmpq   400c70 <_init+0x28>

0000000000400dd0 <_IO_getc@plt>:
  400dd0:	ff 25 ea 42 20 00    	jmpq   *0x2042ea(%rip)        # 6050c0 <_GLOBAL_OFFSET_TABLE_+0xc0>
  400dd6:	68 15 00 00 00       	pushq  $0x15
  400ddb:	e9 90 fe ff ff       	jmpq   400c70 <_init+0x28>

0000000000400de0 <__isoc99_sscanf@plt>:
  400de0:	ff 25 e2 42 20 00    	jmpq   *0x2042e2(%rip)        # 6050c8 <_GLOBAL_OFFSET_TABLE_+0xc8>
  400de6:	68 16 00 00 00       	pushq  $0x16
  400deb:	e9 80 fe ff ff       	jmpq   400c70 <_init+0x28>

0000000000400df0 <munmap@plt>:
  400df0:	ff 25 da 42 20 00    	jmpq   *0x2042da(%rip)        # 6050d0 <_GLOBAL_OFFSET_TABLE_+0xd0>
  400df6:	68 17 00 00 00       	pushq  $0x17
  400dfb:	e9 70 fe ff ff       	jmpq   400c70 <_init+0x28>

0000000000400e00 <__printf_chk@plt>:
  400e00:	ff 25 d2 42 20 00    	jmpq   *0x2042d2(%rip)        # 6050d8 <_GLOBAL_OFFSET_TABLE_+0xd8>
  400e06:	68 18 00 00 00       	pushq  $0x18
  400e0b:	e9 60 fe ff ff       	jmpq   400c70 <_init+0x28>

0000000000400e10 <fopen@plt>:
  400e10:	ff 25 ca 42 20 00    	jmpq   *0x2042ca(%rip)        # 6050e0 <_GLOBAL_OFFSET_TABLE_+0xe0>
  400e16:	68 19 00 00 00       	pushq  $0x19
  400e1b:	e9 50 fe ff ff       	jmpq   400c70 <_init+0x28>

0000000000400e20 <getopt@plt>:
  400e20:	ff 25 c2 42 20 00    	jmpq   *0x2042c2(%rip)        # 6050e8 <_GLOBAL_OFFSET_TABLE_+0xe8>
  400e26:	68 1a 00 00 00       	pushq  $0x1a
  400e2b:	e9 40 fe ff ff       	jmpq   400c70 <_init+0x28>

0000000000400e30 <strtoul@plt>:
  400e30:	ff 25 ba 42 20 00    	jmpq   *0x2042ba(%rip)        # 6050f0 <_GLOBAL_OFFSET_TABLE_+0xf0>
  400e36:	68 1b 00 00 00       	pushq  $0x1b
  400e3b:	e9 30 fe ff ff       	jmpq   400c70 <_init+0x28>

0000000000400e40 <gethostname@plt>:
  400e40:	ff 25 b2 42 20 00    	jmpq   *0x2042b2(%rip)        # 6050f8 <_GLOBAL_OFFSET_TABLE_+0xf8>
  400e46:	68 1c 00 00 00       	pushq  $0x1c
  400e4b:	e9 20 fe ff ff       	jmpq   400c70 <_init+0x28>

0000000000400e50 <exit@plt>:
  400e50:	ff 25 aa 42 20 00    	jmpq   *0x2042aa(%rip)        # 605100 <_GLOBAL_OFFSET_TABLE_+0x100>
  400e56:	68 1d 00 00 00       	pushq  $0x1d
  400e5b:	e9 10 fe ff ff       	jmpq   400c70 <_init+0x28>

0000000000400e60 <connect@plt>:
  400e60:	ff 25 a2 42 20 00    	jmpq   *0x2042a2(%rip)        # 605108 <_GLOBAL_OFFSET_TABLE_+0x108>
  400e66:	68 1e 00 00 00       	pushq  $0x1e
  400e6b:	e9 00 fe ff ff       	jmpq   400c70 <_init+0x28>

0000000000400e70 <__fprintf_chk@plt>:
  400e70:	ff 25 9a 42 20 00    	jmpq   *0x20429a(%rip)        # 605110 <_GLOBAL_OFFSET_TABLE_+0x110>
  400e76:	68 1f 00 00 00       	pushq  $0x1f
  400e7b:	e9 f0 fd ff ff       	jmpq   400c70 <_init+0x28>

0000000000400e80 <__sprintf_chk@plt>:
  400e80:	ff 25 92 42 20 00    	jmpq   *0x204292(%rip)        # 605118 <_GLOBAL_OFFSET_TABLE_+0x118>
  400e86:	68 20 00 00 00       	pushq  $0x20
  400e8b:	e9 e0 fd ff ff       	jmpq   400c70 <_init+0x28>

0000000000400e90 <socket@plt>:
  400e90:	ff 25 8a 42 20 00    	jmpq   *0x20428a(%rip)        # 605120 <_GLOBAL_OFFSET_TABLE_+0x120>
  400e96:	68 21 00 00 00       	pushq  $0x21
  400e9b:	e9 d0 fd ff ff       	jmpq   400c70 <_init+0x28>

Disassembly of section .plt.got:

0000000000400ea0 <.plt.got>:
  400ea0:	ff 25 52 41 20 00    	jmpq   *0x204152(%rip)        # 604ff8 <_DYNAMIC+0x1d0>
  400ea6:	66 90                	xchg   %ax,%ax

Disassembly of section .text:

0000000000400eb0 <_start>:
  400eb0:	31 ed                	xor    %ebp,%ebp
  400eb2:	49 89 d1             	mov    %rdx,%r9
  400eb5:	5e                   	pop    %rsi
  400eb6:	48 89 e2             	mov    %rsp,%rdx
  400eb9:	48 83 e4 f0          	and    $0xfffffffffffffff0,%rsp
  400ebd:	50                   	push   %rax
  400ebe:	54                   	push   %rsp
  400ebf:	49 c7 c0 80 30 40 00 	mov    $0x403080,%r8
  400ec6:	48 c7 c1 10 30 40 00 	mov    $0x403010,%rcx
  400ecd:	48 c7 c7 ba 11 40 00 	mov    $0x4011ba,%rdi
  400ed4:	e8 77 fe ff ff       	callq  400d50 <__libc_start_main@plt>
  400ed9:	f4                   	hlt    
  400eda:	66 0f 1f 44 00 00    	nopw   0x0(%rax,%rax,1)

0000000000400ee0 <deregister_tm_clones>:
  400ee0:	b8 b7 54 60 00       	mov    $0x6054b7,%eax
  400ee5:	55                   	push   %rbp
  400ee6:	48 2d b0 54 60 00    	sub    $0x6054b0,%rax
  400eec:	48 83 f8 0e          	cmp    $0xe,%rax
  400ef0:	48 89 e5             	mov    %rsp,%rbp
  400ef3:	76 1b                	jbe    400f10 <deregister_tm_clones+0x30>
  400ef5:	b8 00 00 00 00       	mov    $0x0,%eax
  400efa:	48 85 c0             	test   %rax,%rax
  400efd:	74 11                	je     400f10 <deregister_tm_clones+0x30>
  400eff:	5d                   	pop    %rbp
  400f00:	bf b0 54 60 00       	mov    $0x6054b0,%edi
  400f05:	ff e0                	jmpq   *%rax
  400f07:	66 0f 1f 84 00 00 00 	nopw   0x0(%rax,%rax,1)
  400f0e:	00 00 
  400f10:	5d                   	pop    %rbp
  400f11:	c3                   	retq   
  400f12:	0f 1f 40 00          	nopl   0x0(%rax)
  400f16:	66 2e 0f 1f 84 00 00 	nopw   %cs:0x0(%rax,%rax,1)
  400f1d:	00 00 00 

0000000000400f20 <register_tm_clones>:
  400f20:	be b0 54 60 00       	mov    $0x6054b0,%esi
  400f25:	55                   	push   %rbp
  400f26:	48 81 ee b0 54 60 00 	sub    $0x6054b0,%rsi
  400f2d:	48 c1 fe 03          	sar    $0x3,%rsi
  400f31:	48 89 e5             	mov    %rsp,%rbp
  400f34:	48 89 f0             	mov    %rsi,%rax
  400f37:	48 c1 e8 3f          	shr    $0x3f,%rax
  400f3b:	48 01 c6             	add    %rax,%rsi
  400f3e:	48 d1 fe             	sar    %rsi
  400f41:	74 15                	je     400f58 <register_tm_clones+0x38>
  400f43:	b8 00 00 00 00       	mov    $0x0,%eax
  400f48:	48 85 c0             	test   %rax,%rax
  400f4b:	74 0b                	je     400f58 <register_tm_clones+0x38>
  400f4d:	5d                   	pop    %rbp
  400f4e:	bf b0 54 60 00       	mov    $0x6054b0,%edi
  400f53:	ff e0                	jmpq   *%rax
  400f55:	0f 1f 00             	nopl   (%rax)
  400f58:	5d                   	pop    %rbp
  400f59:	c3                   	retq   
  400f5a:	66 0f 1f 44 00 00    	nopw   0x0(%rax,%rax,1)

0000000000400f60 <__do_global_dtors_aux>:
  400f60:	80 3d 81 45 20 00 00 	cmpb   $0x0,0x204581(%rip)        # 6054e8 <completed.7585>
  400f67:	75 11                	jne    400f7a <__do_global_dtors_aux+0x1a>
  400f69:	55                   	push   %rbp
  400f6a:	48 89 e5             	mov    %rsp,%rbp
  400f6d:	e8 6e ff ff ff       	callq  400ee0 <deregister_tm_clones>
  400f72:	5d                   	pop    %rbp
  400f73:	c6 05 6e 45 20 00 01 	movb   $0x1,0x20456e(%rip)        # 6054e8 <completed.7585>
  400f7a:	f3 c3                	repz retq 
  400f7c:	0f 1f 40 00          	nopl   0x0(%rax)

0000000000400f80 <frame_dummy>:
  400f80:	bf 20 4e 60 00       	mov    $0x604e20,%edi
  400f85:	48 83 3f 00          	cmpq   $0x0,(%rdi)
  400f89:	75 05                	jne    400f90 <frame_dummy+0x10>
  400f8b:	eb 93                	jmp    400f20 <register_tm_clones>
  400f8d:	0f 1f 00             	nopl   (%rax)
  400f90:	b8 00 00 00 00       	mov    $0x0,%eax
  400f95:	48 85 c0             	test   %rax,%rax
  400f98:	74 f1                	je     400f8b <frame_dummy+0xb>
  400f9a:	55                   	push   %rbp
  400f9b:	48 89 e5             	mov    %rsp,%rbp
  400f9e:	ff d0                	callq  *%rax
  400fa0:	5d                   	pop    %rbp
  400fa1:	e9 7a ff ff ff       	jmpq   400f20 <register_tm_clones>

0000000000400fa6 <usage>:
  400fa6:	48 83 ec 08          	sub    $0x8,%rsp
  400faa:	48 89 fa             	mov    %rdi,%rdx
  400fad:	83 3d 74 45 20 00 00 	cmpl   $0x0,0x204574(%rip)        # 605528 <is_checker>
  400fb4:	74 3e                	je     400ff4 <usage+0x4e>
  400fb6:	be 98 30 40 00       	mov    $0x403098,%esi
  400fbb:	bf 01 00 00 00       	mov    $0x1,%edi
  400fc0:	b8 00 00 00 00       	mov    $0x0,%eax
  400fc5:	e8 36 fe ff ff       	callq  400e00 <__printf_chk@plt>
  400fca:	bf d0 30 40 00       	mov    $0x4030d0,%edi
  400fcf:	e8 fc fc ff ff       	callq  400cd0 <puts@plt>
  400fd4:	bf 48 32 40 00       	mov    $0x403248,%edi
  400fd9:	e8 f2 fc ff ff       	callq  400cd0 <puts@plt>
  400fde:	bf f8 30 40 00       	mov    $0x4030f8,%edi
  400fe3:	e8 e8 fc ff ff       	callq  400cd0 <puts@plt>
  400fe8:	bf 62 32 40 00       	mov    $0x403262,%edi
  400fed:	e8 de fc ff ff       	callq  400cd0 <puts@plt>
  400ff2:	eb 32                	jmp    401026 <usage+0x80>
  400ff4:	be 7e 32 40 00       	mov    $0x40327e,%esi
  400ff9:	bf 01 00 00 00       	mov    $0x1,%edi
  400ffe:	b8 00 00 00 00       	mov    $0x0,%eax
  401003:	e8 f8 fd ff ff       	callq  400e00 <__printf_chk@plt>
  401008:	bf 20 31 40 00       	mov    $0x403120,%edi
  40100d:	e8 be fc ff ff       	callq  400cd0 <puts@plt>
  401012:	bf 48 31 40 00       	mov    $0x403148,%edi
  401017:	e8 b4 fc ff ff       	callq  400cd0 <puts@plt>
  40101c:	bf 9c 32 40 00       	mov    $0x40329c,%edi
  401021:	e8 aa fc ff ff       	callq  400cd0 <puts@plt>
  401026:	bf 00 00 00 00       	mov    $0x0,%edi
  40102b:	e8 20 fe ff ff       	callq  400e50 <exit@plt>

0000000000401030 <initialize_target>:
  401030:	55                   	push   %rbp
  401031:	53                   	push   %rbx
  401032:	48 81 ec 18 21 00 00 	sub    $0x2118,%rsp
  401039:	89 f5                	mov    %esi,%ebp
  40103b:	64 48 8b 04 25 28 00 	mov    %fs:0x28,%rax
  401042:	00 00 
  401044:	48 89 84 24 08 21 00 	mov    %rax,0x2108(%rsp)
  40104b:	00 
  40104c:	31 c0                	xor    %eax,%eax
  40104e:	89 3d c4 44 20 00    	mov    %edi,0x2044c4(%rip)        # 605518 <check_level>
  401054:	8b 3d 0e 41 20 00    	mov    0x20410e(%rip),%edi        # 605168 <target_id>
  40105a:	e8 8e 1f 00 00       	callq  402fed <gencookie>
  40105f:	89 05 bf 44 20 00    	mov    %eax,0x2044bf(%rip)        # 605524 <cookie>
  401065:	89 c7                	mov    %eax,%edi
  401067:	e8 81 1f 00 00       	callq  402fed <gencookie>
  40106c:	89 05 ae 44 20 00    	mov    %eax,0x2044ae(%rip)        # 605520 <authkey>
  401072:	8b 05 f0 40 20 00    	mov    0x2040f0(%rip),%eax        # 605168 <target_id>
  401078:	8d 78 01             	lea    0x1(%rax),%edi
  40107b:	e8 20 fc ff ff       	callq  400ca0 <srandom@plt>
  401080:	e8 3b fd ff ff       	callq  400dc0 <random@plt>
  401085:	89 c7                	mov    %eax,%edi
  401087:	e8 08 03 00 00       	callq  401394 <scramble>
  40108c:	89 c3                	mov    %eax,%ebx
  40108e:	85 ed                	test   %ebp,%ebp
  401090:	74 18                	je     4010aa <initialize_target+0x7a>
  401092:	bf 00 00 00 00       	mov    $0x0,%edi
  401097:	e8 14 fd ff ff       	callq  400db0 <time@plt>
  40109c:	89 c7                	mov    %eax,%edi
  40109e:	e8 fd fb ff ff       	callq  400ca0 <srandom@plt>
  4010a3:	e8 18 fd ff ff       	callq  400dc0 <random@plt>
  4010a8:	eb 05                	jmp    4010af <initialize_target+0x7f>
  4010aa:	b8 00 00 00 00       	mov    $0x0,%eax
  4010af:	01 c3                	add    %eax,%ebx
  4010b1:	0f b7 db             	movzwl %bx,%ebx
  4010b4:	8d 04 dd 00 01 00 00 	lea    0x100(,%rbx,8),%eax
  4010bb:	89 c0                	mov    %eax,%eax
  4010bd:	48 89 05 dc 43 20 00 	mov    %rax,0x2043dc(%rip)        # 6054a0 <buf_offset>
  4010c4:	c6 05 7d 50 20 00 72 	movb   $0x72,0x20507d(%rip)        # 606148 <target_prefix>
  4010cb:	83 3d d6 43 20 00 00 	cmpl   $0x0,0x2043d6(%rip)        # 6054a8 <notify>
  4010d2:	0f 84 c0 00 00 00    	je     401198 <initialize_target+0x168>
  4010d8:	83 3d 49 44 20 00 00 	cmpl   $0x0,0x204449(%rip)        # 605528 <is_checker>
  4010df:	0f 85 b3 00 00 00    	jne    401198 <initialize_target+0x168>
  4010e5:	be 00 01 00 00       	mov    $0x100,%esi
  4010ea:	48 89 e7             	mov    %rsp,%rdi
  4010ed:	e8 4e fd ff ff       	callq  400e40 <gethostname@plt>
  4010f2:	85 c0                	test   %eax,%eax
  4010f4:	74 25                	je     40111b <initialize_target+0xeb>
  4010f6:	bf 78 31 40 00       	mov    $0x403178,%edi
  4010fb:	e8 d0 fb ff ff       	callq  400cd0 <puts@plt>
  401100:	bf 08 00 00 00       	mov    $0x8,%edi
  401105:	e8 46 fd ff ff       	callq  400e50 <exit@plt>
  40110a:	48 89 e6             	mov    %rsp,%rsi
  40110d:	e8 6e fb ff ff       	callq  400c80 <strcasecmp@plt>
  401112:	85 c0                	test   %eax,%eax
  401114:	74 21                	je     401137 <initialize_target+0x107>
  401116:	83 c3 01             	add    $0x1,%ebx
  401119:	eb 05                	jmp    401120 <initialize_target+0xf0>
  40111b:	bb 00 00 00 00       	mov    $0x0,%ebx
  401120:	48 63 c3             	movslq %ebx,%rax
  401123:	48 8b 3c c5 80 51 60 	mov    0x605180(,%rax,8),%rdi
  40112a:	00 
  40112b:	48 85 ff             	test   %rdi,%rdi
  40112e:	75 da                	jne    40110a <initialize_target+0xda>
  401130:	b8 00 00 00 00       	mov    $0x0,%eax
  401135:	eb 05                	jmp    40113c <initialize_target+0x10c>
  401137:	b8 01 00 00 00       	mov    $0x1,%eax
  40113c:	85 c0                	test   %eax,%eax
  40113e:	74 21                	je     401161 <initialize_target+0x131>
  401140:	48 89 e2             	mov    %rsp,%rdx
  401143:	be b0 31 40 00       	mov    $0x4031b0,%esi
  401148:	bf 01 00 00 00       	mov    $0x1,%edi
  40114d:	b8 00 00 00 00       	mov    $0x0,%eax
  401152:	e8 a9 fc ff ff       	callq  400e00 <__printf_chk@plt>
  401157:	bf 08 00 00 00       	mov    $0x8,%edi
  40115c:	e8 ef fc ff ff       	callq  400e50 <exit@plt>
  401161:	48 8d bc 24 00 01 00 	lea    0x100(%rsp),%rdi
  401168:	00 
  401169:	e8 c7 1b 00 00       	callq  402d35 <init_driver>
  40116e:	85 c0                	test   %eax,%eax
  401170:	79 26                	jns    401198 <initialize_target+0x168>
  401172:	48 8d 94 24 00 01 00 	lea    0x100(%rsp),%rdx
  401179:	00 
  40117a:	be f0 31 40 00       	mov    $0x4031f0,%esi
  40117f:	bf 01 00 00 00       	mov    $0x1,%edi
  401184:	b8 00 00 00 00       	mov    $0x0,%eax
  401189:	e8 72 fc ff ff       	callq  400e00 <__printf_chk@plt>
  40118e:	bf 08 00 00 00       	mov    $0x8,%edi
  401193:	e8 b8 fc ff ff       	callq  400e50 <exit@plt>
  401198:	48 8b 84 24 08 21 00 	mov    0x2108(%rsp),%rax
  40119f:	00 
  4011a0:	64 48 33 04 25 28 00 	xor    %fs:0x28,%rax
  4011a7:	00 00 
  4011a9:	74 05                	je     4011b0 <initialize_target+0x180>
  4011ab:	e8 40 fb ff ff       	callq  400cf0 <__stack_chk_fail@plt>
  4011b0:	48 81 c4 18 21 00 00 	add    $0x2118,%rsp
  4011b7:	5b                   	pop    %rbx
  4011b8:	5d                   	pop    %rbp
  4011b9:	c3                   	retq   

00000000004011ba <main>:
  4011ba:	41 56                	push   %r14
  4011bc:	41 55                	push   %r13
  4011be:	41 54                	push   %r12
  4011c0:	55                   	push   %rbp
  4011c1:	53                   	push   %rbx
  4011c2:	41 89 fc             	mov    %edi,%r12d
  4011c5:	48 89 f3             	mov    %rsi,%rbx
  4011c8:	be 70 20 40 00       	mov    $0x402070,%esi
  4011cd:	bf 0b 00 00 00       	mov    $0xb,%edi
  4011d2:	e8 89 fb ff ff       	callq  400d60 <signal@plt>
  4011d7:	be 22 20 40 00       	mov    $0x402022,%esi
  4011dc:	bf 07 00 00 00       	mov    $0x7,%edi
  4011e1:	e8 7a fb ff ff       	callq  400d60 <signal@plt>
  4011e6:	be be 20 40 00       	mov    $0x4020be,%esi
  4011eb:	bf 04 00 00 00       	mov    $0x4,%edi
  4011f0:	e8 6b fb ff ff       	callq  400d60 <signal@plt>
  4011f5:	83 3d 2c 43 20 00 00 	cmpl   $0x0,0x20432c(%rip)        # 605528 <is_checker>
  4011fc:	74 20                	je     40121e <main+0x64>
  4011fe:	be 0c 21 40 00       	mov    $0x40210c,%esi
  401203:	bf 0e 00 00 00       	mov    $0xe,%edi
  401208:	e8 53 fb ff ff       	callq  400d60 <signal@plt>
  40120d:	bf 05 00 00 00       	mov    $0x5,%edi
  401212:	e8 09 fb ff ff       	callq  400d20 <alarm@plt>
  401217:	bd ba 32 40 00       	mov    $0x4032ba,%ebp
  40121c:	eb 05                	jmp    401223 <main+0x69>
  40121e:	bd b5 32 40 00       	mov    $0x4032b5,%ebp
  401223:	48 8b 05 96 42 20 00 	mov    0x204296(%rip),%rax        # 6054c0 <stdin@@GLIBC_2.2.5>
  40122a:	48 89 05 df 42 20 00 	mov    %rax,0x2042df(%rip)        # 605510 <infile>
  401231:	41 bd 00 00 00 00    	mov    $0x0,%r13d
  401237:	41 be 00 00 00 00    	mov    $0x0,%r14d
  40123d:	e9 c6 00 00 00       	jmpq   401308 <main+0x14e>
  401242:	83 e8 61             	sub    $0x61,%eax
  401245:	3c 10                	cmp    $0x10,%al
  401247:	0f 87 9c 00 00 00    	ja     4012e9 <main+0x12f>
  40124d:	0f b6 c0             	movzbl %al,%eax
  401250:	ff 24 c5 00 33 40 00 	jmpq   *0x403300(,%rax,8)
  401257:	48 8b 3b             	mov    (%rbx),%rdi
  40125a:	e8 47 fd ff ff       	callq  400fa6 <usage>
  40125f:	be 55 35 40 00       	mov    $0x403555,%esi
  401264:	48 8b 3d 5d 42 20 00 	mov    0x20425d(%rip),%rdi        # 6054c8 <optarg@@GLIBC_2.2.5>
  40126b:	e8 a0 fb ff ff       	callq  400e10 <fopen@plt>
  401270:	48 89 05 99 42 20 00 	mov    %rax,0x204299(%rip)        # 605510 <infile>
  401277:	48 85 c0             	test   %rax,%rax
  40127a:	0f 85 88 00 00 00    	jne    401308 <main+0x14e>
  401280:	48 8b 0d 41 42 20 00 	mov    0x204241(%rip),%rcx        # 6054c8 <optarg@@GLIBC_2.2.5>
  401287:	ba c2 32 40 00       	mov    $0x4032c2,%edx
  40128c:	be 01 00 00 00       	mov    $0x1,%esi
  401291:	48 8b 3d 48 42 20 00 	mov    0x204248(%rip),%rdi        # 6054e0 <stderr@@GLIBC_2.2.5>
  401298:	e8 d3 fb ff ff       	callq  400e70 <__fprintf_chk@plt>
  40129d:	b8 01 00 00 00       	mov    $0x1,%eax
  4012a2:	e9 e4 00 00 00       	jmpq   40138b <main+0x1d1>
  4012a7:	ba 10 00 00 00       	mov    $0x10,%edx
  4012ac:	be 00 00 00 00       	mov    $0x0,%esi
  4012b1:	48 8b 3d 10 42 20 00 	mov    0x204210(%rip),%rdi        # 6054c8 <optarg@@GLIBC_2.2.5>
  4012b8:	e8 73 fb ff ff       	callq  400e30 <strtoul@plt>
  4012bd:	41 89 c6             	mov    %eax,%r14d
  4012c0:	eb 46                	jmp    401308 <main+0x14e>
  4012c2:	ba 0a 00 00 00       	mov    $0xa,%edx
  4012c7:	be 00 00 00 00       	mov    $0x0,%esi
  4012cc:	48 8b 3d f5 41 20 00 	mov    0x2041f5(%rip),%rdi        # 6054c8 <optarg@@GLIBC_2.2.5>
  4012d3:	e8 b8 fa ff ff       	callq  400d90 <strtol@plt>
  4012d8:	41 89 c5             	mov    %eax,%r13d
  4012db:	eb 2b                	jmp    401308 <main+0x14e>
  4012dd:	c7 05 c1 41 20 00 00 	movl   $0x0,0x2041c1(%rip)        # 6054a8 <notify>
  4012e4:	00 00 00 
  4012e7:	eb 1f                	jmp    401308 <main+0x14e>
  4012e9:	0f be d2             	movsbl %dl,%edx
  4012ec:	be df 32 40 00       	mov    $0x4032df,%esi
  4012f1:	bf 01 00 00 00       	mov    $0x1,%edi
  4012f6:	b8 00 00 00 00       	mov    $0x0,%eax
  4012fb:	e8 00 fb ff ff       	callq  400e00 <__printf_chk@plt>
  401300:	48 8b 3b             	mov    (%rbx),%rdi
  401303:	e8 9e fc ff ff       	callq  400fa6 <usage>
  401308:	48 89 ea             	mov    %rbp,%rdx
  40130b:	48 89 de             	mov    %rbx,%rsi
  40130e:	44 89 e7             	mov    %r12d,%edi
  401311:	e8 0a fb ff ff       	callq  400e20 <getopt@plt>
  401316:	89 c2                	mov    %eax,%edx
  401318:	3c ff                	cmp    $0xff,%al
  40131a:	0f 85 22 ff ff ff    	jne    401242 <main+0x88>
  401320:	be 01 00 00 00       	mov    $0x1,%esi
  401325:	44 89 ef             	mov    %r13d,%edi
  401328:	e8 03 fd ff ff       	callq  401030 <initialize_target>
  40132d:	83 3d f4 41 20 00 00 	cmpl   $0x0,0x2041f4(%rip)        # 605528 <is_checker>
  401334:	74 2a                	je     401360 <main+0x1a6>
  401336:	44 3b 35 e3 41 20 00 	cmp    0x2041e3(%rip),%r14d        # 605520 <authkey>
  40133d:	74 21                	je     401360 <main+0x1a6>
  40133f:	44 89 f2             	mov    %r14d,%edx
  401342:	be 18 32 40 00       	mov    $0x403218,%esi
  401347:	bf 01 00 00 00       	mov    $0x1,%edi
  40134c:	b8 00 00 00 00       	mov    $0x0,%eax
  401351:	e8 aa fa ff ff       	callq  400e00 <__printf_chk@plt>
  401356:	b8 00 00 00 00       	mov    $0x0,%eax
  40135b:	e8 5e 09 00 00       	callq  401cbe <check_fail>
  401360:	8b 15 be 41 20 00    	mov    0x2041be(%rip),%edx        # 605524 <cookie>
  401366:	be f2 32 40 00       	mov    $0x4032f2,%esi
  40136b:	bf 01 00 00 00       	mov    $0x1,%edi
  401370:	b8 00 00 00 00       	mov    $0x0,%eax
  401375:	e8 86 fa ff ff       	callq  400e00 <__printf_chk@plt>
  40137a:	48 8b 3d 1f 41 20 00 	mov    0x20411f(%rip),%rdi        # 6054a0 <buf_offset>
  401381:	e8 d9 0d 00 00       	callq  40215f <launch>
  401386:	b8 00 00 00 00       	mov    $0x0,%eax
  40138b:	5b                   	pop    %rbx
  40138c:	5d                   	pop    %rbp
  40138d:	41 5c                	pop    %r12
  40138f:	41 5d                	pop    %r13
  401391:	41 5e                	pop    %r14
  401393:	c3                   	retq   

0000000000401394 <scramble>:
  401394:	48 83 ec 38          	sub    $0x38,%rsp
  401398:	64 48 8b 04 25 28 00 	mov    %fs:0x28,%rax
  40139f:	00 00 
  4013a1:	48 89 44 24 28       	mov    %rax,0x28(%rsp)
  4013a6:	31 c0                	xor    %eax,%eax
  4013a8:	eb 10                	jmp    4013ba <scramble+0x26>
  4013aa:	69 d0 c7 44 00 00    	imul   $0x44c7,%eax,%edx
  4013b0:	01 fa                	add    %edi,%edx
  4013b2:	89 c1                	mov    %eax,%ecx
  4013b4:	89 14 8c             	mov    %edx,(%rsp,%rcx,4)
  4013b7:	83 c0 01             	add    $0x1,%eax
  4013ba:	83 f8 09             	cmp    $0x9,%eax
  4013bd:	76 eb                	jbe    4013aa <scramble+0x16>
  4013bf:	8b 44 24 08          	mov    0x8(%rsp),%eax
  4013c3:	69 c0 0a bf 00 00    	imul   $0xbf0a,%eax,%eax
  4013c9:	89 44 24 08          	mov    %eax,0x8(%rsp)
  4013cd:	8b 44 24 10          	mov    0x10(%rsp),%eax
  4013d1:	69 c0 bc 16 00 00    	imul   $0x16bc,%eax,%eax
  4013d7:	89 44 24 10          	mov    %eax,0x10(%rsp)
  4013db:	8b 44 24 24          	mov    0x24(%rsp),%eax
  4013df:	69 c0 de 68 00 00    	imul   $0x68de,%eax,%eax
  4013e5:	89 44 24 24          	mov    %eax,0x24(%rsp)
  4013e9:	8b 44 24 0c          	mov    0xc(%rsp),%eax
  4013ed:	69 c0 be 61 00 00    	imul   $0x61be,%eax,%eax
  4013f3:	89 44 24 0c          	mov    %eax,0xc(%rsp)
  4013f7:	8b 44 24 24          	mov    0x24(%rsp),%eax
  4013fb:	69 c0 ae ec 00 00    	imul   $0xecae,%eax,%eax
  401401:	89 44 24 24          	mov    %eax,0x24(%rsp)
  401405:	8b 44 24 10          	mov    0x10(%rsp),%eax
  401409:	69 c0 f5 68 00 00    	imul   $0x68f5,%eax,%eax
  40140f:	89 44 24 10          	mov    %eax,0x10(%rsp)
  401413:	8b 44 24 20          	mov    0x20(%rsp),%eax
  401417:	69 c0 27 7a 00 00    	imul   $0x7a27,%eax,%eax
  40141d:	89 44 24 20          	mov    %eax,0x20(%rsp)
  401421:	8b 44 24 18          	mov    0x18(%rsp),%eax
  401425:	69 c0 0f 93 00 00    	imul   $0x930f,%eax,%eax
  40142b:	89 44 24 18          	mov    %eax,0x18(%rsp)
  40142f:	8b 44 24 20          	mov    0x20(%rsp),%eax
  401433:	69 c0 e2 c2 00 00    	imul   $0xc2e2,%eax,%eax
  401439:	89 44 24 20          	mov    %eax,0x20(%rsp)
  40143d:	8b 44 24 20          	mov    0x20(%rsp),%eax
  401441:	69 c0 0d d8 00 00    	imul   $0xd80d,%eax,%eax
  401447:	89 44 24 20          	mov    %eax,0x20(%rsp)
  40144b:	8b 44 24 10          	mov    0x10(%rsp),%eax
  40144f:	69 c0 52 69 00 00    	imul   $0x6952,%eax,%eax
  401455:	89 44 24 10          	mov    %eax,0x10(%rsp)
  401459:	8b 44 24 1c          	mov    0x1c(%rsp),%eax
  40145d:	69 c0 5b e9 00 00    	imul   $0xe95b,%eax,%eax
  401463:	89 44 24 1c          	mov    %eax,0x1c(%rsp)
  401467:	8b 44 24 20          	mov    0x20(%rsp),%eax
  40146b:	69 c0 a5 fc 00 00    	imul   $0xfca5,%eax,%eax
  401471:	89 44 24 20          	mov    %eax,0x20(%rsp)
  401475:	8b 44 24 24          	mov    0x24(%rsp),%eax
  401479:	69 c0 e8 21 00 00    	imul   $0x21e8,%eax,%eax
  40147f:	89 44 24 24          	mov    %eax,0x24(%rsp)
  401483:	8b 44 24 24          	mov    0x24(%rsp),%eax
  401487:	69 c0 f4 0a 00 00    	imul   $0xaf4,%eax,%eax
  40148d:	89 44 24 24          	mov    %eax,0x24(%rsp)
  401491:	8b 44 24 20          	mov    0x20(%rsp),%eax
  401495:	69 c0 5a b1 00 00    	imul   $0xb15a,%eax,%eax
  40149b:	89 44 24 20          	mov    %eax,0x20(%rsp)
  40149f:	8b 44 24 08          	mov    0x8(%rsp),%eax
  4014a3:	69 c0 bb 0b 00 00    	imul   $0xbbb,%eax,%eax
  4014a9:	89 44 24 08          	mov    %eax,0x8(%rsp)
  4014ad:	8b 44 24 1c          	mov    0x1c(%rsp),%eax
  4014b1:	69 c0 68 0a 00 00    	imul   $0xa68,%eax,%eax
  4014b7:	89 44 24 1c          	mov    %eax,0x1c(%rsp)
  4014bb:	8b 44 24 08          	mov    0x8(%rsp),%eax
  4014bf:	69 c0 f1 c8 00 00    	imul   $0xc8f1,%eax,%eax
  4014c5:	89 44 24 08          	mov    %eax,0x8(%rsp)
  4014c9:	8b 44 24 1c          	mov    0x1c(%rsp),%eax
  4014cd:	69 c0 9e 67 00 00    	imul   $0x679e,%eax,%eax
  4014d3:	89 44 24 1c          	mov    %eax,0x1c(%rsp)
  4014d7:	8b 44 24 14          	mov    0x14(%rsp),%eax
  4014db:	69 c0 69 b8 00 00    	imul   $0xb869,%eax,%eax
  4014e1:	89 44 24 14          	mov    %eax,0x14(%rsp)
  4014e5:	8b 44 24 24          	mov    0x24(%rsp),%eax
  4014e9:	69 c0 46 b3 00 00    	imul   $0xb346,%eax,%eax
  4014ef:	89 44 24 24          	mov    %eax,0x24(%rsp)
  4014f3:	8b 44 24 04          	mov    0x4(%rsp),%eax
  4014f7:	69 c0 15 b6 00 00    	imul   $0xb615,%eax,%eax
  4014fd:	89 44 24 04          	mov    %eax,0x4(%rsp)
  401501:	8b 44 24 24          	mov    0x24(%rsp),%eax
  401505:	69 c0 99 67 00 00    	imul   $0x6799,%eax,%eax
  40150b:	89 44 24 24          	mov    %eax,0x24(%rsp)
  40150f:	8b 44 24 18          	mov    0x18(%rsp),%eax
  401513:	69 c0 e3 40 00 00    	imul   $0x40e3,%eax,%eax
  401519:	89 44 24 18          	mov    %eax,0x18(%rsp)
  40151d:	8b 44 24 04          	mov    0x4(%rsp),%eax
  401521:	69 c0 42 4a 00 00    	imul   $0x4a42,%eax,%eax
  401527:	89 44 24 04          	mov    %eax,0x4(%rsp)
  40152b:	8b 44 24 14          	mov    0x14(%rsp),%eax
  40152f:	69 c0 a2 0d 00 00    	imul   $0xda2,%eax,%eax
  401535:	89 44 24 14          	mov    %eax,0x14(%rsp)
  401539:	8b 44 24 1c          	mov    0x1c(%rsp),%eax
  40153d:	69 c0 ef 89 00 00    	imul   $0x89ef,%eax,%eax
  401543:	89 44 24 1c          	mov    %eax,0x1c(%rsp)
  401547:	8b 44 24 24          	mov    0x24(%rsp),%eax
  40154b:	69 c0 a7 af 00 00    	imul   $0xafa7,%eax,%eax
  401551:	89 44 24 24          	mov    %eax,0x24(%rsp)
  401555:	8b 44 24 24          	mov    0x24(%rsp),%eax
  401559:	69 c0 da 76 00 00    	imul   $0x76da,%eax,%eax
  40155f:	89 44 24 24          	mov    %eax,0x24(%rsp)
  401563:	8b 44 24 04          	mov    0x4(%rsp),%eax
  401567:	69 c0 a6 b7 00 00    	imul   $0xb7a6,%eax,%eax
  40156d:	89 44 24 04          	mov    %eax,0x4(%rsp)
  401571:	8b 44 24 08          	mov    0x8(%rsp),%eax
  401575:	69 c0 9a 84 00 00    	imul   $0x849a,%eax,%eax
  40157b:	89 44 24 08          	mov    %eax,0x8(%rsp)
  40157f:	8b 44 24 08          	mov    0x8(%rsp),%eax
  401583:	69 c0 4b f0 00 00    	imul   $0xf04b,%eax,%eax
  401589:	89 44 24 08          	mov    %eax,0x8(%rsp)
  40158d:	8b 44 24 14          	mov    0x14(%rsp),%eax
  401591:	69 c0 fb 37 00 00    	imul   $0x37fb,%eax,%eax
  401597:	89 44 24 14          	mov    %eax,0x14(%rsp)
  40159b:	8b 44 24 08          	mov    0x8(%rsp),%eax
  40159f:	69 c0 29 fb 00 00    	imul   $0xfb29,%eax,%eax
  4015a5:	89 44 24 08          	mov    %eax,0x8(%rsp)
  4015a9:	8b 44 24 08          	mov    0x8(%rsp),%eax
  4015ad:	69 c0 dc 6e 00 00    	imul   $0x6edc,%eax,%eax
  4015b3:	89 44 24 08          	mov    %eax,0x8(%rsp)
  4015b7:	8b 44 24 20          	mov    0x20(%rsp),%eax
  4015bb:	69 c0 2d 70 00 00    	imul   $0x702d,%eax,%eax
  4015c1:	89 44 24 20          	mov    %eax,0x20(%rsp)
  4015c5:	8b 44 24 14          	mov    0x14(%rsp),%eax
  4015c9:	69 c0 23 e6 00 00    	imul   $0xe623,%eax,%eax
  4015cf:	89 44 24 14          	mov    %eax,0x14(%rsp)
  4015d3:	8b 44 24 20          	mov    0x20(%rsp),%eax
  4015d7:	69 c0 78 68 00 00    	imul   $0x6878,%eax,%eax
  4015dd:	89 44 24 20          	mov    %eax,0x20(%rsp)
  4015e1:	8b 44 24 0c          	mov    0xc(%rsp),%eax
  4015e5:	69 c0 3a 9f 00 00    	imul   $0x9f3a,%eax,%eax
  4015eb:	89 44 24 0c          	mov    %eax,0xc(%rsp)
  4015ef:	8b 44 24 10          	mov    0x10(%rsp),%eax
  4015f3:	69 c0 62 8d 00 00    	imul   $0x8d62,%eax,%eax
  4015f9:	89 44 24 10          	mov    %eax,0x10(%rsp)
  4015fd:	8b 44 24 20          	mov    0x20(%rsp),%eax
  401601:	69 c0 91 53 00 00    	imul   $0x5391,%eax,%eax
  401607:	89 44 24 20          	mov    %eax,0x20(%rsp)
  40160b:	8b 44 24 18          	mov    0x18(%rsp),%eax
  40160f:	69 c0 19 1d 00 00    	imul   $0x1d19,%eax,%eax
  401615:	89 44 24 18          	mov    %eax,0x18(%rsp)
  401619:	8b 44 24 14          	mov    0x14(%rsp),%eax
  40161d:	69 c0 4c a5 00 00    	imul   $0xa54c,%eax,%eax
  401623:	89 44 24 14          	mov    %eax,0x14(%rsp)
  401627:	8b 44 24 20          	mov    0x20(%rsp),%eax
  40162b:	69 c0 57 89 00 00    	imul   $0x8957,%eax,%eax
  401631:	89 44 24 20          	mov    %eax,0x20(%rsp)
  401635:	8b 44 24 1c          	mov    0x1c(%rsp),%eax
  401639:	69 c0 5c 87 00 00    	imul   $0x875c,%eax,%eax
  40163f:	89 44 24 1c          	mov    %eax,0x1c(%rsp)
  401643:	8b 44 24 10          	mov    0x10(%rsp),%eax
  401647:	69 c0 5b 44 00 00    	imul   $0x445b,%eax,%eax
  40164d:	89 44 24 10          	mov    %eax,0x10(%rsp)
  401651:	8b 44 24 0c          	mov    0xc(%rsp),%eax
  401655:	69 c0 5f 04 00 00    	imul   $0x45f,%eax,%eax
  40165b:	89 44 24 0c          	mov    %eax,0xc(%rsp)
  40165f:	8b 44 24 04          	mov    0x4(%rsp),%eax
  401663:	69 c0 f9 9a 00 00    	imul   $0x9af9,%eax,%eax
  401669:	89 44 24 04          	mov    %eax,0x4(%rsp)
  40166d:	8b 44 24 20          	mov    0x20(%rsp),%eax
  401671:	69 c0 e4 ed 00 00    	imul   $0xede4,%eax,%eax
  401677:	89 44 24 20          	mov    %eax,0x20(%rsp)
  40167b:	8b 44 24 08          	mov    0x8(%rsp),%eax
  40167f:	69 c0 f5 db 00 00    	imul   $0xdbf5,%eax,%eax
  401685:	89 44 24 08          	mov    %eax,0x8(%rsp)
  401689:	8b 44 24 18          	mov    0x18(%rsp),%eax
  40168d:	69 c0 b4 49 00 00    	imul   $0x49b4,%eax,%eax
  401693:	89 44 24 18          	mov    %eax,0x18(%rsp)
  401697:	8b 44 24 08          	mov    0x8(%rsp),%eax
  40169b:	69 c0 e3 7e 00 00    	imul   $0x7ee3,%eax,%eax
  4016a1:	89 44 24 08          	mov    %eax,0x8(%rsp)
  4016a5:	8b 44 24 14          	mov    0x14(%rsp),%eax
  4016a9:	69 c0 65 72 00 00    	imul   $0x7265,%eax,%eax
  4016af:	89 44 24 14          	mov    %eax,0x14(%rsp)
  4016b3:	8b 44 24 20          	mov    0x20(%rsp),%eax
  4016b7:	69 c0 94 7d 00 00    	imul   $0x7d94,%eax,%eax
  4016bd:	89 44 24 20          	mov    %eax,0x20(%rsp)
  4016c1:	8b 44 24 24          	mov    0x24(%rsp),%eax
  4016c5:	69 c0 b6 90 00 00    	imul   $0x90b6,%eax,%eax
  4016cb:	89 44 24 24          	mov    %eax,0x24(%rsp)
  4016cf:	8b 44 24 1c          	mov    0x1c(%rsp),%eax
  4016d3:	69 c0 1c fb 00 00    	imul   $0xfb1c,%eax,%eax
  4016d9:	89 44 24 1c          	mov    %eax,0x1c(%rsp)
  4016dd:	8b 44 24 10          	mov    0x10(%rsp),%eax
  4016e1:	69 c0 fb a5 00 00    	imul   $0xa5fb,%eax,%eax
  4016e7:	89 44 24 10          	mov    %eax,0x10(%rsp)
  4016eb:	8b 44 24 1c          	mov    0x1c(%rsp),%eax
  4016ef:	69 c0 c7 c1 00 00    	imul   $0xc1c7,%eax,%eax
  4016f5:	89 44 24 1c          	mov    %eax,0x1c(%rsp)
  4016f9:	8b 44 24 08          	mov    0x8(%rsp),%eax
  4016fd:	69 c0 f7 e4 00 00    	imul   $0xe4f7,%eax,%eax
  401703:	89 44 24 08          	mov    %eax,0x8(%rsp)
  401707:	8b 44 24 14          	mov    0x14(%rsp),%eax
  40170b:	69 c0 6e 67 00 00    	imul   $0x676e,%eax,%eax
  401711:	89 44 24 14          	mov    %eax,0x14(%rsp)
  401715:	8b 44 24 14          	mov    0x14(%rsp),%eax
  401719:	69 c0 1c 8c 00 00    	imul   $0x8c1c,%eax,%eax
  40171f:	89 44 24 14          	mov    %eax,0x14(%rsp)
  401723:	8b 44 24 04          	mov    0x4(%rsp),%eax
  401727:	69 c0 4a 78 00 00    	imul   $0x784a,%eax,%eax
  40172d:	89 44 24 04          	mov    %eax,0x4(%rsp)
  401731:	8b 44 24 04          	mov    0x4(%rsp),%eax
  401735:	69 c0 70 e0 00 00    	imul   $0xe070,%eax,%eax
  40173b:	89 44 24 04          	mov    %eax,0x4(%rsp)
  40173f:	8b 44 24 20          	mov    0x20(%rsp),%eax
  401743:	69 c0 d6 cc 00 00    	imul   $0xccd6,%eax,%eax
  401749:	89 44 24 20          	mov    %eax,0x20(%rsp)
  40174d:	8b 44 24 24          	mov    0x24(%rsp),%eax
  401751:	69 c0 65 a9 00 00    	imul   $0xa965,%eax,%eax
  401757:	89 44 24 24          	mov    %eax,0x24(%rsp)
  40175b:	8b 44 24 24          	mov    0x24(%rsp),%eax
  40175f:	69 c0 15 2b 00 00    	imul   $0x2b15,%eax,%eax
  401765:	89 44 24 24          	mov    %eax,0x24(%rsp)
  401769:	8b 44 24 10          	mov    0x10(%rsp),%eax
  40176d:	69 c0 ee f4 00 00    	imul   $0xf4ee,%eax,%eax
  401773:	89 44 24 10          	mov    %eax,0x10(%rsp)
  401777:	8b 44 24 24          	mov    0x24(%rsp),%eax
  40177b:	69 c0 f1 22 00 00    	imul   $0x22f1,%eax,%eax
  401781:	89 44 24 24          	mov    %eax,0x24(%rsp)
  401785:	8b 44 24 20          	mov    0x20(%rsp),%eax
  401789:	69 c0 53 91 00 00    	imul   $0x9153,%eax,%eax
  40178f:	89 44 24 20          	mov    %eax,0x20(%rsp)
  401793:	8b 44 24 24          	mov    0x24(%rsp),%eax
  401797:	69 c0 f3 78 00 00    	imul   $0x78f3,%eax,%eax
  40179d:	89 44 24 24          	mov    %eax,0x24(%rsp)
  4017a1:	8b 44 24 10          	mov    0x10(%rsp),%eax
  4017a5:	69 c0 7d ab 00 00    	imul   $0xab7d,%eax,%eax
  4017ab:	89 44 24 10          	mov    %eax,0x10(%rsp)
  4017af:	8b 44 24 20          	mov    0x20(%rsp),%eax
  4017b3:	69 c0 51 06 00 00    	imul   $0x651,%eax,%eax
  4017b9:	89 44 24 20          	mov    %eax,0x20(%rsp)
  4017bd:	8b 44 24 08          	mov    0x8(%rsp),%eax
  4017c1:	69 c0 46 8c 00 00    	imul   $0x8c46,%eax,%eax
  4017c7:	89 44 24 08          	mov    %eax,0x8(%rsp)
  4017cb:	8b 44 24 24          	mov    0x24(%rsp),%eax
  4017cf:	69 c0 c0 9c 00 00    	imul   $0x9cc0,%eax,%eax
  4017d5:	89 44 24 24          	mov    %eax,0x24(%rsp)
  4017d9:	8b 44 24 18          	mov    0x18(%rsp),%eax
  4017dd:	69 c0 37 13 00 00    	imul   $0x1337,%eax,%eax
  4017e3:	89 44 24 18          	mov    %eax,0x18(%rsp)
  4017e7:	8b 44 24 1c          	mov    0x1c(%rsp),%eax
  4017eb:	69 c0 90 dd 00 00    	imul   $0xdd90,%eax,%eax
  4017f1:	89 44 24 1c          	mov    %eax,0x1c(%rsp)
  4017f5:	8b 44 24 10          	mov    0x10(%rsp),%eax
  4017f9:	69 c0 f7 af 00 00    	imul   $0xaff7,%eax,%eax
  4017ff:	89 44 24 10          	mov    %eax,0x10(%rsp)
  401803:	8b 44 24 08          	mov    0x8(%rsp),%eax
  401807:	69 c0 ce 2f 00 00    	imul   $0x2fce,%eax,%eax
  40180d:	89 44 24 08          	mov    %eax,0x8(%rsp)
  401811:	8b 44 24 0c          	mov    0xc(%rsp),%eax
  401815:	69 c0 1d 69 00 00    	imul   $0x691d,%eax,%eax
  40181b:	89 44 24 0c          	mov    %eax,0xc(%rsp)
  40181f:	8b 44 24 18          	mov    0x18(%rsp),%eax
  401823:	69 c0 bc 5e 00 00    	imul   $0x5ebc,%eax,%eax
  401829:	89 44 24 18          	mov    %eax,0x18(%rsp)
  40182d:	8b 44 24 0c          	mov    0xc(%rsp),%eax
  401831:	69 c0 70 a5 00 00    	imul   $0xa570,%eax,%eax
  401837:	89 44 24 0c          	mov    %eax,0xc(%rsp)
  40183b:	8b 44 24 08          	mov    0x8(%rsp),%eax
  40183f:	69 c0 9c 05 00 00    	imul   $0x59c,%eax,%eax
  401845:	89 44 24 08          	mov    %eax,0x8(%rsp)
  401849:	8b 44 24 0c          	mov    0xc(%rsp),%eax
  40184d:	69 c0 c9 33 00 00    	imul   $0x33c9,%eax,%eax
  401853:	89 44 24 0c          	mov    %eax,0xc(%rsp)
  401857:	8b 04 24             	mov    (%rsp),%eax
  40185a:	69 c0 b2 01 00 00    	imul   $0x1b2,%eax,%eax
  401860:	89 04 24             	mov    %eax,(%rsp)
  401863:	8b 44 24 14          	mov    0x14(%rsp),%eax
  401867:	69 c0 13 c9 00 00    	imul   $0xc913,%eax,%eax
  40186d:	89 44 24 14          	mov    %eax,0x14(%rsp)
  401871:	8b 44 24 08          	mov    0x8(%rsp),%eax
  401875:	69 c0 26 e7 00 00    	imul   $0xe726,%eax,%eax
  40187b:	89 44 24 08          	mov    %eax,0x8(%rsp)
  40187f:	8b 44 24 04          	mov    0x4(%rsp),%eax
  401883:	69 c0 b5 ee 00 00    	imul   $0xeeb5,%eax,%eax
  401889:	89 44 24 04          	mov    %eax,0x4(%rsp)
  40188d:	8b 44 24 24          	mov    0x24(%rsp),%eax
  401891:	69 c0 09 c6 00 00    	imul   $0xc609,%eax,%eax
  401897:	89 44 24 24          	mov    %eax,0x24(%rsp)
  40189b:	8b 44 24 04          	mov    0x4(%rsp),%eax
  40189f:	69 c0 8f b5 00 00    	imul   $0xb58f,%eax,%eax
  4018a5:	89 44 24 04          	mov    %eax,0x4(%rsp)
  4018a9:	8b 04 24             	mov    (%rsp),%eax
  4018ac:	69 c0 38 ec 00 00    	imul   $0xec38,%eax,%eax
  4018b2:	89 04 24             	mov    %eax,(%rsp)
  4018b5:	8b 44 24 0c          	mov    0xc(%rsp),%eax
  4018b9:	69 c0 f7 66 00 00    	imul   $0x66f7,%eax,%eax
  4018bf:	89 44 24 0c          	mov    %eax,0xc(%rsp)
  4018c3:	8b 04 24             	mov    (%rsp),%eax
  4018c6:	69 c0 19 68 00 00    	imul   $0x6819,%eax,%eax
  4018cc:	89 04 24             	mov    %eax,(%rsp)
  4018cf:	8b 44 24 20          	mov    0x20(%rsp),%eax
  4018d3:	69 c0 a3 1f 00 00    	imul   $0x1fa3,%eax,%eax
  4018d9:	89 44 24 20          	mov    %eax,0x20(%rsp)
  4018dd:	8b 44 24 1c          	mov    0x1c(%rsp),%eax
  4018e1:	69 c0 56 a7 00 00    	imul   $0xa756,%eax,%eax
  4018e7:	89 44 24 1c          	mov    %eax,0x1c(%rsp)
  4018eb:	8b 44 24 1c          	mov    0x1c(%rsp),%eax
  4018ef:	69 c0 8d 94 00 00    	imul   $0x948d,%eax,%eax
  4018f5:	89 44 24 1c          	mov    %eax,0x1c(%rsp)
  4018f9:	8b 44 24 14          	mov    0x14(%rsp),%eax
  4018fd:	69 c0 43 9b 00 00    	imul   $0x9b43,%eax,%eax
  401903:	89 44 24 14          	mov    %eax,0x14(%rsp)
  401907:	8b 44 24 14          	mov    0x14(%rsp),%eax
  40190b:	69 c0 e4 8f 00 00    	imul   $0x8fe4,%eax,%eax
  401911:	89 44 24 14          	mov    %eax,0x14(%rsp)
  401915:	ba 00 00 00 00       	mov    $0x0,%edx
  40191a:	b8 00 00 00 00       	mov    $0x0,%eax
  40191f:	eb 0a                	jmp    40192b <scramble+0x597>
  401921:	89 d1                	mov    %edx,%ecx
  401923:	8b 0c 8c             	mov    (%rsp,%rcx,4),%ecx
  401926:	01 c8                	add    %ecx,%eax
  401928:	83 c2 01             	add    $0x1,%edx
  40192b:	83 fa 09             	cmp    $0x9,%edx
  40192e:	76 f1                	jbe    401921 <scramble+0x58d>
  401930:	48 8b 74 24 28       	mov    0x28(%rsp),%rsi
  401935:	64 48 33 34 25 28 00 	xor    %fs:0x28,%rsi
  40193c:	00 00 
  40193e:	74 05                	je     401945 <scramble+0x5b1>
  401940:	e8 ab f3 ff ff       	callq  400cf0 <__stack_chk_fail@plt>
  401945:	48 83 c4 38          	add    $0x38,%rsp
  401949:	c3                   	retq   

000000000040194a <getbuf>:
  40194a:	48 83 ec 38          	sub    $0x38,%rsp
  40194e:	48 89 e7             	mov    %rsp,%rdi
  401951:	e8 9d 03 00 00       	callq  401cf3 <Gets>
  401956:	b8 01 00 00 00       	mov    $0x1,%eax
  40195b:	48 83 c4 38          	add    $0x38,%rsp
  40195f:	c3                   	retq   

0000000000401960 <touch1>:
  401960:	48 83 ec 08          	sub    $0x8,%rsp
  401964:	c7 05 ae 3b 20 00 01 	movl   $0x1,0x203bae(%rip)        # 60551c <vlevel>
  40196b:	00 00 00 
  40196e:	bf ae 33 40 00       	mov    $0x4033ae,%edi
  401973:	e8 58 f3 ff ff       	callq  400cd0 <puts@plt>
  401978:	bf 01 00 00 00       	mov    $0x1,%edi
  40197d:	e8 b6 05 00 00       	callq  401f38 <validate>
  401982:	bf 00 00 00 00       	mov    $0x0,%edi
  401987:	e8 c4 f4 ff ff       	callq  400e50 <exit@plt>

000000000040198c <touch2>:
  40198c:	48 83 ec 08          	sub    $0x8,%rsp
  401990:	89 fa                	mov    %edi,%edx
  401992:	c7 05 80 3b 20 00 02 	movl   $0x2,0x203b80(%rip)        # 60551c <vlevel>
  401999:	00 00 00 
  40199c:	39 3d 82 3b 20 00    	cmp    %edi,0x203b82(%rip)        # 605524 <cookie>
  4019a2:	75 20                	jne    4019c4 <touch2+0x38>
  4019a4:	be d0 33 40 00       	mov    $0x4033d0,%esi
  4019a9:	bf 01 00 00 00       	mov    $0x1,%edi
  4019ae:	b8 00 00 00 00       	mov    $0x0,%eax
  4019b3:	e8 48 f4 ff ff       	callq  400e00 <__printf_chk@plt>
  4019b8:	bf 02 00 00 00       	mov    $0x2,%edi
  4019bd:	e8 76 05 00 00       	callq  401f38 <validate>
  4019c2:	eb 1e                	jmp    4019e2 <touch2+0x56>
  4019c4:	be f8 33 40 00       	mov    $0x4033f8,%esi
  4019c9:	bf 01 00 00 00       	mov    $0x1,%edi
  4019ce:	b8 00 00 00 00       	mov    $0x0,%eax
  4019d3:	e8 28 f4 ff ff       	callq  400e00 <__printf_chk@plt>
  4019d8:	bf 02 00 00 00       	mov    $0x2,%edi
  4019dd:	e8 18 06 00 00       	callq  401ffa <fail>
  4019e2:	bf 00 00 00 00       	mov    $0x0,%edi
  4019e7:	e8 64 f4 ff ff       	callq  400e50 <exit@plt>

00000000004019ec <hexmatch>:
  4019ec:	41 54                	push   %r12
  4019ee:	55                   	push   %rbp
  4019ef:	53                   	push   %rbx
  4019f0:	48 83 c4 80          	add    $0xffffffffffffff80,%rsp
  4019f4:	89 fd                	mov    %edi,%ebp
  4019f6:	48 89 f3             	mov    %rsi,%rbx
  4019f9:	64 48 8b 04 25 28 00 	mov    %fs:0x28,%rax
  401a00:	00 00 
  401a02:	48 89 44 24 78       	mov    %rax,0x78(%rsp)
  401a07:	31 c0                	xor    %eax,%eax
  401a09:	e8 b2 f3 ff ff       	callq  400dc0 <random@plt>
  401a0e:	48 89 c1             	mov    %rax,%rcx
  401a11:	48 ba 0b d7 a3 70 3d 	movabs $0xa3d70a3d70a3d70b,%rdx
  401a18:	0a d7 a3 
  401a1b:	48 f7 ea             	imul   %rdx
  401a1e:	48 01 ca             	add    %rcx,%rdx
  401a21:	48 c1 fa 06          	sar    $0x6,%rdx
  401a25:	48 89 c8             	mov    %rcx,%rax
  401a28:	48 c1 f8 3f          	sar    $0x3f,%rax
  401a2c:	48 29 c2             	sub    %rax,%rdx
  401a2f:	48 8d 04 92          	lea    (%rdx,%rdx,4),%rax
  401a33:	48 8d 14 80          	lea    (%rax,%rax,4),%rdx
  401a37:	48 8d 04 95 00 00 00 	lea    0x0(,%rdx,4),%rax
  401a3e:	00 
  401a3f:	48 29 c1             	sub    %rax,%rcx
  401a42:	4c 8d 24 0c          	lea    (%rsp,%rcx,1),%r12
  401a46:	41 89 e8             	mov    %ebp,%r8d
  401a49:	b9 cb 33 40 00       	mov    $0x4033cb,%ecx
  401a4e:	48 c7 c2 ff ff ff ff 	mov    $0xffffffffffffffff,%rdx
  401a55:	be 01 00 00 00       	mov    $0x1,%esi
  401a5a:	4c 89 e7             	mov    %r12,%rdi
  401a5d:	b8 00 00 00 00       	mov    $0x0,%eax
  401a62:	e8 19 f4 ff ff       	callq  400e80 <__sprintf_chk@plt>
  401a67:	ba 09 00 00 00       	mov    $0x9,%edx
  401a6c:	4c 89 e6             	mov    %r12,%rsi
  401a6f:	48 89 df             	mov    %rbx,%rdi
  401a72:	e8 39 f2 ff ff       	callq  400cb0 <strncmp@plt>
  401a77:	85 c0                	test   %eax,%eax
  401a79:	0f 94 c0             	sete   %al
  401a7c:	48 8b 5c 24 78       	mov    0x78(%rsp),%rbx
  401a81:	64 48 33 1c 25 28 00 	xor    %fs:0x28,%rbx
  401a88:	00 00 
  401a8a:	74 05                	je     401a91 <hexmatch+0xa5>
  401a8c:	e8 5f f2 ff ff       	callq  400cf0 <__stack_chk_fail@plt>
  401a91:	0f b6 c0             	movzbl %al,%eax
  401a94:	48 83 ec 80          	sub    $0xffffffffffffff80,%rsp
  401a98:	5b                   	pop    %rbx
  401a99:	5d                   	pop    %rbp
  401a9a:	41 5c                	pop    %r12
  401a9c:	c3                   	retq   

0000000000401a9d <touch3>:
  401a9d:	53                   	push   %rbx
  401a9e:	48 89 fb             	mov    %rdi,%rbx
  401aa1:	c7 05 71 3a 20 00 03 	movl   $0x3,0x203a71(%rip)        # 60551c <vlevel>
  401aa8:	00 00 00 
  401aab:	48 89 fe             	mov    %rdi,%rsi
  401aae:	8b 3d 70 3a 20 00    	mov    0x203a70(%rip),%edi        # 605524 <cookie>
  401ab4:	e8 33 ff ff ff       	callq  4019ec <hexmatch>
  401ab9:	85 c0                	test   %eax,%eax
  401abb:	74 23                	je     401ae0 <touch3+0x43>
  401abd:	48 89 da             	mov    %rbx,%rdx
  401ac0:	be 20 34 40 00       	mov    $0x403420,%esi
  401ac5:	bf 01 00 00 00       	mov    $0x1,%edi
  401aca:	b8 00 00 00 00       	mov    $0x0,%eax
  401acf:	e8 2c f3 ff ff       	callq  400e00 <__printf_chk@plt>
  401ad4:	bf 03 00 00 00       	mov    $0x3,%edi
  401ad9:	e8 5a 04 00 00       	callq  401f38 <validate>
  401ade:	eb 21                	jmp    401b01 <touch3+0x64>
  401ae0:	48 89 da             	mov    %rbx,%rdx
  401ae3:	be 48 34 40 00       	mov    $0x403448,%esi
  401ae8:	bf 01 00 00 00       	mov    $0x1,%edi
  401aed:	b8 00 00 00 00       	mov    $0x0,%eax
  401af2:	e8 09 f3 ff ff       	callq  400e00 <__printf_chk@plt>
  401af7:	bf 03 00 00 00       	mov    $0x3,%edi
  401afc:	e8 f9 04 00 00       	callq  401ffa <fail>
  401b01:	bf 00 00 00 00       	mov    $0x0,%edi
  401b06:	e8 45 f3 ff ff       	callq  400e50 <exit@plt>

0000000000401b0b <test>:
  401b0b:	48 83 ec 08          	sub    $0x8,%rsp
  401b0f:	b8 00 00 00 00       	mov    $0x0,%eax
  401b14:	e8 31 fe ff ff       	callq  40194a <getbuf>
  401b19:	89 c2                	mov    %eax,%edx
  401b1b:	be 70 34 40 00       	mov    $0x403470,%esi
  401b20:	bf 01 00 00 00       	mov    $0x1,%edi
  401b25:	b8 00 00 00 00       	mov    $0x0,%eax
  401b2a:	e8 d1 f2 ff ff       	callq  400e00 <__printf_chk@plt>
  401b2f:	48 83 c4 08          	add    $0x8,%rsp
  401b33:	c3                   	retq   

0000000000401b34 <start_farm>:
  401b34:	b8 01 00 00 00       	mov    $0x1,%eax
  401b39:	c3                   	retq   

0000000000401b3a <addval_283>:
  401b3a:	8d 87 59 58 91 c3    	lea    -0x3c6ea7a7(%rdi),%eax
  401b40:	c3                   	retq   

0000000000401b41 <getval_464>:
  401b41:	b8 58 90 90 c3       	mov    $0xc3909058,%eax
  401b46:	c3                   	retq   

0000000000401b47 <setval_110>:
  401b47:	c7 07 48 c9 c7 c3    	movl   $0xc3c7c948,(%rdi)
  401b4d:	c3                   	retq   

0000000000401b4e <setval_214>:
  401b4e:	c7 07 48 89 c7 c3    	movl   $0xc3c78948,(%rdi)
  401b54:	c3                   	retq   

0000000000401b55 <getval_235>:
  401b55:	b8 58 90 90 c3       	mov    $0xc3909058,%eax
  401b5a:	c3                   	retq   

0000000000401b5b <addval_499>:
  401b5b:	8d 87 48 90 90 90    	lea    -0x6f6f6fb8(%rdi),%eax
  401b61:	c3                   	retq   

0000000000401b62 <getval_174>:
  401b62:	b8 48 88 c7 c3       	mov    $0xc3c78848,%eax
  401b67:	c3                   	retq   

0000000000401b68 <setval_489>:
  401b68:	c7 07 48 89 c7 c3    	movl   $0xc3c78948,(%rdi)
  401b6e:	c3                   	retq   

0000000000401b6f <mid_farm>:
  401b6f:	b8 01 00 00 00       	mov    $0x1,%eax
  401b74:	c3                   	retq   

0000000000401b75 <add_xy>:
  401b75:	48 8d 04 37          	lea    (%rdi,%rsi,1),%rax
  401b79:	c3                   	retq   

0000000000401b7a <getval_452>:
  401b7a:	b8 89 c1 94 90       	mov    $0x9094c189,%eax
  401b7f:	c3                   	retq   

0000000000401b80 <addval_277>:
  401b80:	8d 87 09 ca 38 c0    	lea    -0x3fc735f7(%rdi),%eax
  401b86:	c3                   	retq   

0000000000401b87 <addval_453>:
  401b87:	8d 87 89 d6 84 c9    	lea    -0x367b2977(%rdi),%eax
  401b8d:	c3                   	retq   

0000000000401b8e <getval_355>:
  401b8e:	b8 6b 81 d6 c3       	mov    $0xc3d6816b,%eax
  401b93:	c3                   	retq   

0000000000401b94 <getval_168>:
  401b94:	b8 49 89 d6 c3       	mov    $0xc3d68949,%eax
  401b99:	c3                   	retq   

0000000000401b9a <addval_236>:
  401b9a:	8d 87 89 d6 90 c1    	lea    -0x3e6f2977(%rdi),%eax
  401ba0:	c3                   	retq   

0000000000401ba1 <getval_458>:
  401ba1:	b8 89 ca 90 90       	mov    $0x9090ca89,%eax
  401ba6:	c3                   	retq   

0000000000401ba7 <getval_370>:
  401ba7:	b8 89 ca 18 db       	mov    $0xdb18ca89,%eax
  401bac:	c3                   	retq   

0000000000401bad <addval_315>:
  401bad:	8d 87 a9 ca 90 90    	lea    -0x6f6f3557(%rdi),%eax
  401bb3:	c3                   	retq   

0000000000401bb4 <getval_220>:
  401bb4:	b8 99 ca c3 22       	mov    $0x22c3ca99,%eax
  401bb9:	c3                   	retq   

0000000000401bba <setval_461>:
  401bba:	c7 07 48 89 e0 c3    	movl   $0xc3e08948,(%rdi)
  401bc0:	c3                   	retq   

0000000000401bc1 <addval_246>:
  401bc1:	8d 87 89 ca 08 d2    	lea    -0x2df73577(%rdi),%eax
  401bc7:	c3                   	retq   

0000000000401bc8 <getval_255>:
  401bc8:	b8 88 d6 38 c9       	mov    $0xc938d688,%eax
  401bcd:	c3                   	retq   

0000000000401bce <getval_279>:
  401bce:	b8 88 c1 08 d2       	mov    $0xd208c188,%eax
  401bd3:	c3                   	retq   

0000000000401bd4 <setval_158>:
  401bd4:	c7 07 c9 ca 84 c9    	movl   $0xc984cac9,(%rdi)
  401bda:	c3                   	retq   

0000000000401bdb <getval_322>:
  401bdb:	b8 89 c1 28 c0       	mov    $0xc028c189,%eax
  401be0:	c3                   	retq   

0000000000401be1 <addval_156>:
  401be1:	8d 87 48 89 e0 c3    	lea    -0x3c1f76b8(%rdi),%eax
  401be7:	c3                   	retq   

0000000000401be8 <addval_423>:
  401be8:	8d 87 89 d6 94 c9    	lea    -0x366b2977(%rdi),%eax
  401bee:	c3                   	retq   

0000000000401bef <setval_395>:
  401bef:	c7 07 0d 89 c1 91    	movl   $0x91c1890d,(%rdi)
  401bf5:	c3                   	retq   

0000000000401bf6 <setval_443>:
  401bf6:	c7 07 89 c1 60 db    	movl   $0xdb60c189,(%rdi)
  401bfc:	c3                   	retq   

0000000000401bfd <setval_154>:
  401bfd:	c7 07 48 89 e0 c7    	movl   $0xc7e08948,(%rdi)
  401c03:	c3                   	retq   

0000000000401c04 <getval_428>:
  401c04:	b8 89 d6 78 c9       	mov    $0xc978d689,%eax
  401c09:	c3                   	retq   

0000000000401c0a <setval_310>:
  401c0a:	c7 07 48 89 e0 c7    	movl   $0xc7e08948,(%rdi)
  401c10:	c3                   	retq   

0000000000401c11 <setval_479>:
  401c11:	c7 07 48 89 e0 94    	movl   $0x94e08948,(%rdi)
  401c17:	c3                   	retq   

0000000000401c18 <setval_346>:
  401c18:	c7 07 48 89 e0 c2    	movl   $0xc2e08948,(%rdi)
  401c1e:	c3                   	retq   

0000000000401c1f <getval_386>:
  401c1f:	b8 89 ca 60 c0       	mov    $0xc060ca89,%eax
  401c24:	c3                   	retq   

0000000000401c25 <addval_311>:
  401c25:	8d 87 de 89 d6 c7    	lea    -0x38297622(%rdi),%eax
  401c2b:	c3                   	retq   

0000000000401c2c <setval_351>:
  401c2c:	c7 07 b4 e9 09 c1    	movl   $0xc109e9b4,(%rdi)
  401c32:	c3                   	retq   

0000000000401c33 <getval_312>:
  401c33:	b8 4c 89 e0 c3       	mov    $0xc3e0894c,%eax
  401c38:	c3                   	retq   

0000000000401c39 <getval_191>:
  401c39:	b8 89 c1 90 c3       	mov    $0xc390c189,%eax
  401c3e:	c3                   	retq   

0000000000401c3f <setval_247>:
  401c3f:	c7 07 89 c1 20 d2    	movl   $0xd220c189,(%rdi)
  401c45:	c3                   	retq   

0000000000401c46 <addval_347>:
  401c46:	8d 87 48 89 e0 c2    	lea    -0x3d1f76b8(%rdi),%eax
  401c4c:	c3                   	retq   

0000000000401c4d <end_farm>:
  401c4d:	b8 01 00 00 00       	mov    $0x1,%eax
  401c52:	c3                   	retq   

0000000000401c53 <save_char>:
  401c53:	8b 05 eb 44 20 00    	mov    0x2044eb(%rip),%eax        # 606144 <gets_cnt>
  401c59:	3d ff 03 00 00       	cmp    $0x3ff,%eax
  401c5e:	7f 49                	jg     401ca9 <save_char+0x56>
  401c60:	8d 14 40             	lea    (%rax,%rax,2),%edx
  401c63:	89 f9                	mov    %edi,%ecx
  401c65:	c0 e9 04             	shr    $0x4,%cl
  401c68:	83 e1 0f             	and    $0xf,%ecx
  401c6b:	0f b6 b1 90 37 40 00 	movzbl 0x403790(%rcx),%esi
  401c72:	48 63 ca             	movslq %edx,%rcx
  401c75:	40 88 b1 40 55 60 00 	mov    %sil,0x605540(%rcx)
  401c7c:	8d 4a 01             	lea    0x1(%rdx),%ecx
  401c7f:	83 e7 0f             	and    $0xf,%edi
  401c82:	0f b6 b7 90 37 40 00 	movzbl 0x403790(%rdi),%esi
  401c89:	48 63 c9             	movslq %ecx,%rcx
  401c8c:	40 88 b1 40 55 60 00 	mov    %sil,0x605540(%rcx)
  401c93:	83 c2 02             	add    $0x2,%edx
  401c96:	48 63 d2             	movslq %edx,%rdx
  401c99:	c6 82 40 55 60 00 20 	movb   $0x20,0x605540(%rdx)
  401ca0:	83 c0 01             	add    $0x1,%eax
  401ca3:	89 05 9b 44 20 00    	mov    %eax,0x20449b(%rip)        # 606144 <gets_cnt>
  401ca9:	f3 c3                	repz retq 

0000000000401cab <save_term>:
  401cab:	8b 05 93 44 20 00    	mov    0x204493(%rip),%eax        # 606144 <gets_cnt>
  401cb1:	8d 04 40             	lea    (%rax,%rax,2),%eax
  401cb4:	48 98                	cltq   
  401cb6:	c6 80 40 55 60 00 00 	movb   $0x0,0x605540(%rax)
  401cbd:	c3                   	retq   

0000000000401cbe <check_fail>:
  401cbe:	48 83 ec 08          	sub    $0x8,%rsp
  401cc2:	0f be 15 7f 44 20 00 	movsbl 0x20447f(%rip),%edx        # 606148 <target_prefix>
  401cc9:	41 b8 40 55 60 00    	mov    $0x605540,%r8d
  401ccf:	8b 0d 43 38 20 00    	mov    0x203843(%rip),%ecx        # 605518 <check_level>
  401cd5:	be 93 34 40 00       	mov    $0x403493,%esi
  401cda:	bf 01 00 00 00       	mov    $0x1,%edi
  401cdf:	b8 00 00 00 00       	mov    $0x0,%eax
  401ce4:	e8 17 f1 ff ff       	callq  400e00 <__printf_chk@plt>
  401ce9:	bf 01 00 00 00       	mov    $0x1,%edi
  401cee:	e8 5d f1 ff ff       	callq  400e50 <exit@plt>

0000000000401cf3 <Gets>:
  401cf3:	41 54                	push   %r12
  401cf5:	55                   	push   %rbp
  401cf6:	53                   	push   %rbx
  401cf7:	49 89 fc             	mov    %rdi,%r12
  401cfa:	c7 05 40 44 20 00 00 	movl   $0x0,0x204440(%rip)        # 606144 <gets_cnt>
  401d01:	00 00 00 
  401d04:	48 89 fb             	mov    %rdi,%rbx
  401d07:	eb 11                	jmp    401d1a <Gets+0x27>
  401d09:	48 8d 6b 01          	lea    0x1(%rbx),%rbp
  401d0d:	88 03                	mov    %al,(%rbx)
  401d0f:	0f b6 f8             	movzbl %al,%edi
  401d12:	e8 3c ff ff ff       	callq  401c53 <save_char>
  401d17:	48 89 eb             	mov    %rbp,%rbx
  401d1a:	48 8b 3d ef 37 20 00 	mov    0x2037ef(%rip),%rdi        # 605510 <infile>
  401d21:	e8 aa f0 ff ff       	callq  400dd0 <_IO_getc@plt>
  401d26:	83 f8 ff             	cmp    $0xffffffff,%eax
  401d29:	74 05                	je     401d30 <Gets+0x3d>
  401d2b:	83 f8 0a             	cmp    $0xa,%eax
  401d2e:	75 d9                	jne    401d09 <Gets+0x16>
  401d30:	c6 03 00             	movb   $0x0,(%rbx)
  401d33:	b8 00 00 00 00       	mov    $0x0,%eax
  401d38:	e8 6e ff ff ff       	callq  401cab <save_term>
  401d3d:	4c 89 e0             	mov    %r12,%rax
  401d40:	5b                   	pop    %rbx
  401d41:	5d                   	pop    %rbp
  401d42:	41 5c                	pop    %r12
  401d44:	c3                   	retq   

0000000000401d45 <notify_server>:
  401d45:	53                   	push   %rbx
  401d46:	48 81 ec 10 40 00 00 	sub    $0x4010,%rsp
  401d4d:	64 48 8b 04 25 28 00 	mov    %fs:0x28,%rax
  401d54:	00 00 
  401d56:	48 89 84 24 08 40 00 	mov    %rax,0x4008(%rsp)
  401d5d:	00 
  401d5e:	31 c0                	xor    %eax,%eax
  401d60:	83 3d c1 37 20 00 00 	cmpl   $0x0,0x2037c1(%rip)        # 605528 <is_checker>
  401d67:	0f 85 aa 01 00 00    	jne    401f17 <notify_server+0x1d2>
  401d6d:	89 fb                	mov    %edi,%ebx
  401d6f:	8b 05 cf 43 20 00    	mov    0x2043cf(%rip),%eax        # 606144 <gets_cnt>
  401d75:	83 c0 64             	add    $0x64,%eax
  401d78:	3d 00 20 00 00       	cmp    $0x2000,%eax
  401d7d:	7e 1e                	jle    401d9d <notify_server+0x58>
  401d7f:	be c8 35 40 00       	mov    $0x4035c8,%esi
  401d84:	bf 01 00 00 00       	mov    $0x1,%edi
  401d89:	b8 00 00 00 00       	mov    $0x0,%eax
  401d8e:	e8 6d f0 ff ff       	callq  400e00 <__printf_chk@plt>
  401d93:	bf 01 00 00 00       	mov    $0x1,%edi
  401d98:	e8 b3 f0 ff ff       	callq  400e50 <exit@plt>
  401d9d:	0f be 05 a4 43 20 00 	movsbl 0x2043a4(%rip),%eax        # 606148 <target_prefix>
  401da4:	83 3d fd 36 20 00 00 	cmpl   $0x0,0x2036fd(%rip)        # 6054a8 <notify>
  401dab:	74 08                	je     401db5 <notify_server+0x70>
  401dad:	8b 15 6d 37 20 00    	mov    0x20376d(%rip),%edx        # 605520 <authkey>
  401db3:	eb 05                	jmp    401dba <notify_server+0x75>
  401db5:	ba ff ff ff ff       	mov    $0xffffffff,%edx
  401dba:	85 db                	test   %ebx,%ebx
  401dbc:	74 08                	je     401dc6 <notify_server+0x81>
  401dbe:	41 b9 a9 34 40 00    	mov    $0x4034a9,%r9d
  401dc4:	eb 06                	jmp    401dcc <notify_server+0x87>
  401dc6:	41 b9 ae 34 40 00    	mov    $0x4034ae,%r9d
  401dcc:	68 40 55 60 00       	pushq  $0x605540
  401dd1:	56                   	push   %rsi
  401dd2:	50                   	push   %rax
  401dd3:	52                   	push   %rdx
  401dd4:	44 8b 05 8d 33 20 00 	mov    0x20338d(%rip),%r8d        # 605168 <target_id>
  401ddb:	b9 b3 34 40 00       	mov    $0x4034b3,%ecx
  401de0:	ba 00 20 00 00       	mov    $0x2000,%edx
  401de5:	be 01 00 00 00       	mov    $0x1,%esi
  401dea:	48 8d 7c 24 20       	lea    0x20(%rsp),%rdi
  401def:	b8 00 00 00 00       	mov    $0x0,%eax
  401df4:	e8 87 f0 ff ff       	callq  400e80 <__sprintf_chk@plt>
  401df9:	48 83 c4 20          	add    $0x20,%rsp
  401dfd:	83 3d a4 36 20 00 00 	cmpl   $0x0,0x2036a4(%rip)        # 6054a8 <notify>
  401e04:	0f 84 81 00 00 00    	je     401e8b <notify_server+0x146>
  401e0a:	85 db                	test   %ebx,%ebx
  401e0c:	74 6e                	je     401e7c <notify_server+0x137>
  401e0e:	4c 8d 8c 24 00 20 00 	lea    0x2000(%rsp),%r9
  401e15:	00 
  401e16:	41 b8 00 00 00 00    	mov    $0x0,%r8d
  401e1c:	48 89 e1             	mov    %rsp,%rcx
  401e1f:	48 8b 15 4a 33 20 00 	mov    0x20334a(%rip),%rdx        # 605170 <lab>
  401e26:	48 8b 35 4b 33 20 00 	mov    0x20334b(%rip),%rsi        # 605178 <course>
  401e2d:	48 8b 3d 2c 33 20 00 	mov    0x20332c(%rip),%rdi        # 605160 <user_id>
  401e34:	e8 11 11 00 00       	callq  402f4a <driver_post>
  401e39:	85 c0                	test   %eax,%eax
  401e3b:	79 26                	jns    401e63 <notify_server+0x11e>
  401e3d:	48 8d 94 24 00 20 00 	lea    0x2000(%rsp),%rdx
  401e44:	00 
  401e45:	be cf 34 40 00       	mov    $0x4034cf,%esi
  401e4a:	bf 01 00 00 00       	mov    $0x1,%edi
  401e4f:	b8 00 00 00 00       	mov    $0x0,%eax
  401e54:	e8 a7 ef ff ff       	callq  400e00 <__printf_chk@plt>
  401e59:	bf 01 00 00 00       	mov    $0x1,%edi
  401e5e:	e8 ed ef ff ff       	callq  400e50 <exit@plt>
  401e63:	bf f8 35 40 00       	mov    $0x4035f8,%edi
  401e68:	e8 63 ee ff ff       	callq  400cd0 <puts@plt>
  401e6d:	bf db 34 40 00       	mov    $0x4034db,%edi
  401e72:	e8 59 ee ff ff       	callq  400cd0 <puts@plt>
  401e77:	e9 9b 00 00 00       	jmpq   401f17 <notify_server+0x1d2>
  401e7c:	bf e5 34 40 00       	mov    $0x4034e5,%edi
  401e81:	e8 4a ee ff ff       	callq  400cd0 <puts@plt>
  401e86:	e9 8c 00 00 00       	jmpq   401f17 <notify_server+0x1d2>
  401e8b:	85 db                	test   %ebx,%ebx
  401e8d:	74 07                	je     401e96 <notify_server+0x151>
  401e8f:	ba a9 34 40 00       	mov    $0x4034a9,%edx
  401e94:	eb 05                	jmp    401e9b <notify_server+0x156>
  401e96:	ba ae 34 40 00       	mov    $0x4034ae,%edx
  401e9b:	be 30 36 40 00       	mov    $0x403630,%esi
  401ea0:	bf 01 00 00 00       	mov    $0x1,%edi
  401ea5:	b8 00 00 00 00       	mov    $0x0,%eax
  401eaa:	e8 51 ef ff ff       	callq  400e00 <__printf_chk@plt>
  401eaf:	48 8b 15 aa 32 20 00 	mov    0x2032aa(%rip),%rdx        # 605160 <user_id>
  401eb6:	be ec 34 40 00       	mov    $0x4034ec,%esi
  401ebb:	bf 01 00 00 00       	mov    $0x1,%edi
  401ec0:	b8 00 00 00 00       	mov    $0x0,%eax
  401ec5:	e8 36 ef ff ff       	callq  400e00 <__printf_chk@plt>
  401eca:	48 8b 15 a7 32 20 00 	mov    0x2032a7(%rip),%rdx        # 605178 <course>
  401ed1:	be f9 34 40 00       	mov    $0x4034f9,%esi
  401ed6:	bf 01 00 00 00       	mov    $0x1,%edi
  401edb:	b8 00 00 00 00       	mov    $0x0,%eax
  401ee0:	e8 1b ef ff ff       	callq  400e00 <__printf_chk@plt>
  401ee5:	48 8b 15 84 32 20 00 	mov    0x203284(%rip),%rdx        # 605170 <lab>
  401eec:	be 05 35 40 00       	mov    $0x403505,%esi
  401ef1:	bf 01 00 00 00       	mov    $0x1,%edi
  401ef6:	b8 00 00 00 00       	mov    $0x0,%eax
  401efb:	e8 00 ef ff ff       	callq  400e00 <__printf_chk@plt>
  401f00:	48 89 e2             	mov    %rsp,%rdx
  401f03:	be 0e 35 40 00       	mov    $0x40350e,%esi
  401f08:	bf 01 00 00 00       	mov    $0x1,%edi
  401f0d:	b8 00 00 00 00       	mov    $0x0,%eax
  401f12:	e8 e9 ee ff ff       	callq  400e00 <__printf_chk@plt>
  401f17:	48 8b 84 24 08 40 00 	mov    0x4008(%rsp),%rax
  401f1e:	00 
  401f1f:	64 48 33 04 25 28 00 	xor    %fs:0x28,%rax
  401f26:	00 00 
  401f28:	74 05                	je     401f2f <notify_server+0x1ea>
  401f2a:	e8 c1 ed ff ff       	callq  400cf0 <__stack_chk_fail@plt>
  401f2f:	48 81 c4 10 40 00 00 	add    $0x4010,%rsp
  401f36:	5b                   	pop    %rbx
  401f37:	c3                   	retq   

0000000000401f38 <validate>:
  401f38:	53                   	push   %rbx
  401f39:	89 fb                	mov    %edi,%ebx
  401f3b:	83 3d e6 35 20 00 00 	cmpl   $0x0,0x2035e6(%rip)        # 605528 <is_checker>
  401f42:	74 6b                	je     401faf <validate+0x77>
  401f44:	39 3d d2 35 20 00    	cmp    %edi,0x2035d2(%rip)        # 60551c <vlevel>
  401f4a:	74 14                	je     401f60 <validate+0x28>
  401f4c:	bf 1a 35 40 00       	mov    $0x40351a,%edi
  401f51:	e8 7a ed ff ff       	callq  400cd0 <puts@plt>
  401f56:	b8 00 00 00 00       	mov    $0x0,%eax
  401f5b:	e8 5e fd ff ff       	callq  401cbe <check_fail>
  401f60:	8b 15 b2 35 20 00    	mov    0x2035b2(%rip),%edx        # 605518 <check_level>
  401f66:	39 d7                	cmp    %edx,%edi
  401f68:	74 20                	je     401f8a <validate+0x52>
  401f6a:	89 f9                	mov    %edi,%ecx
  401f6c:	be 58 36 40 00       	mov    $0x403658,%esi
  401f71:	bf 01 00 00 00       	mov    $0x1,%edi
  401f76:	b8 00 00 00 00       	mov    $0x0,%eax
  401f7b:	e8 80 ee ff ff       	callq  400e00 <__printf_chk@plt>
  401f80:	b8 00 00 00 00       	mov    $0x0,%eax
  401f85:	e8 34 fd ff ff       	callq  401cbe <check_fail>
  401f8a:	0f be 15 b7 41 20 00 	movsbl 0x2041b7(%rip),%edx        # 606148 <target_prefix>
  401f91:	41 b8 40 55 60 00    	mov    $0x605540,%r8d
  401f97:	89 f9                	mov    %edi,%ecx
  401f99:	be 38 35 40 00       	mov    $0x403538,%esi
  401f9e:	bf 01 00 00 00       	mov    $0x1,%edi
  401fa3:	b8 00 00 00 00       	mov    $0x0,%eax
  401fa8:	e8 53 ee ff ff       	callq  400e00 <__printf_chk@plt>
  401fad:	eb 49                	jmp    401ff8 <validate+0xc0>
  401faf:	3b 3d 67 35 20 00    	cmp    0x203567(%rip),%edi        # 60551c <vlevel>
  401fb5:	74 18                	je     401fcf <validate+0x97>
  401fb7:	bf 1a 35 40 00       	mov    $0x40351a,%edi
  401fbc:	e8 0f ed ff ff       	callq  400cd0 <puts@plt>
  401fc1:	89 de                	mov    %ebx,%esi
  401fc3:	bf 00 00 00 00       	mov    $0x0,%edi
  401fc8:	e8 78 fd ff ff       	callq  401d45 <notify_server>
  401fcd:	eb 29                	jmp    401ff8 <validate+0xc0>
  401fcf:	0f be 0d 72 41 20 00 	movsbl 0x204172(%rip),%ecx        # 606148 <target_prefix>
  401fd6:	89 fa                	mov    %edi,%edx
  401fd8:	be 80 36 40 00       	mov    $0x403680,%esi
  401fdd:	bf 01 00 00 00       	mov    $0x1,%edi
  401fe2:	b8 00 00 00 00       	mov    $0x0,%eax
  401fe7:	e8 14 ee ff ff       	callq  400e00 <__printf_chk@plt>
  401fec:	89 de                	mov    %ebx,%esi
  401fee:	bf 01 00 00 00       	mov    $0x1,%edi
  401ff3:	e8 4d fd ff ff       	callq  401d45 <notify_server>
  401ff8:	5b                   	pop    %rbx
  401ff9:	c3                   	retq   

0000000000401ffa <fail>:
  401ffa:	48 83 ec 08          	sub    $0x8,%rsp
  401ffe:	83 3d 23 35 20 00 00 	cmpl   $0x0,0x203523(%rip)        # 605528 <is_checker>
  402005:	74 0a                	je     402011 <fail+0x17>
  402007:	b8 00 00 00 00       	mov    $0x0,%eax
  40200c:	e8 ad fc ff ff       	callq  401cbe <check_fail>
  402011:	89 fe                	mov    %edi,%esi
  402013:	bf 00 00 00 00       	mov    $0x0,%edi
  402018:	e8 28 fd ff ff       	callq  401d45 <notify_server>
  40201d:	48 83 c4 08          	add    $0x8,%rsp
  402021:	c3                   	retq   

0000000000402022 <bushandler>:
  402022:	48 83 ec 08          	sub    $0x8,%rsp
  402026:	83 3d fb 34 20 00 00 	cmpl   $0x0,0x2034fb(%rip)        # 605528 <is_checker>
  40202d:	74 14                	je     402043 <bushandler+0x21>
  40202f:	bf 4d 35 40 00       	mov    $0x40354d,%edi
  402034:	e8 97 ec ff ff       	callq  400cd0 <puts@plt>
  402039:	b8 00 00 00 00       	mov    $0x0,%eax
  40203e:	e8 7b fc ff ff       	callq  401cbe <check_fail>
  402043:	bf b8 36 40 00       	mov    $0x4036b8,%edi
  402048:	e8 83 ec ff ff       	callq  400cd0 <puts@plt>
  40204d:	bf 57 35 40 00       	mov    $0x403557,%edi
  402052:	e8 79 ec ff ff       	callq  400cd0 <puts@plt>
  402057:	be 00 00 00 00       	mov    $0x0,%esi
  40205c:	bf 00 00 00 00       	mov    $0x0,%edi
  402061:	e8 df fc ff ff       	callq  401d45 <notify_server>
  402066:	bf 01 00 00 00       	mov    $0x1,%edi
  40206b:	e8 e0 ed ff ff       	callq  400e50 <exit@plt>

0000000000402070 <seghandler>:
  402070:	48 83 ec 08          	sub    $0x8,%rsp
  402074:	83 3d ad 34 20 00 00 	cmpl   $0x0,0x2034ad(%rip)        # 605528 <is_checker>
  40207b:	74 14                	je     402091 <seghandler+0x21>
  40207d:	bf 6d 35 40 00       	mov    $0x40356d,%edi
  402082:	e8 49 ec ff ff       	callq  400cd0 <puts@plt>
  402087:	b8 00 00 00 00       	mov    $0x0,%eax
  40208c:	e8 2d fc ff ff       	callq  401cbe <check_fail>
  402091:	bf d8 36 40 00       	mov    $0x4036d8,%edi
  402096:	e8 35 ec ff ff       	callq  400cd0 <puts@plt>
  40209b:	bf 57 35 40 00       	mov    $0x403557,%edi
  4020a0:	e8 2b ec ff ff       	callq  400cd0 <puts@plt>
  4020a5:	be 00 00 00 00       	mov    $0x0,%esi
  4020aa:	bf 00 00 00 00       	mov    $0x0,%edi
  4020af:	e8 91 fc ff ff       	callq  401d45 <notify_server>
  4020b4:	bf 01 00 00 00       	mov    $0x1,%edi
  4020b9:	e8 92 ed ff ff       	callq  400e50 <exit@plt>

00000000004020be <illegalhandler>:
  4020be:	48 83 ec 08          	sub    $0x8,%rsp
  4020c2:	83 3d 5f 34 20 00 00 	cmpl   $0x0,0x20345f(%rip)        # 605528 <is_checker>
  4020c9:	74 14                	je     4020df <illegalhandler+0x21>
  4020cb:	bf 80 35 40 00       	mov    $0x403580,%edi
  4020d0:	e8 fb eb ff ff       	callq  400cd0 <puts@plt>
  4020d5:	b8 00 00 00 00       	mov    $0x0,%eax
  4020da:	e8 df fb ff ff       	callq  401cbe <check_fail>
  4020df:	bf 00 37 40 00       	mov    $0x403700,%edi
  4020e4:	e8 e7 eb ff ff       	callq  400cd0 <puts@plt>
  4020e9:	bf 57 35 40 00       	mov    $0x403557,%edi
  4020ee:	e8 dd eb ff ff       	callq  400cd0 <puts@plt>
  4020f3:	be 00 00 00 00       	mov    $0x0,%esi
  4020f8:	bf 00 00 00 00       	mov    $0x0,%edi
  4020fd:	e8 43 fc ff ff       	callq  401d45 <notify_server>
  402102:	bf 01 00 00 00       	mov    $0x1,%edi
  402107:	e8 44 ed ff ff       	callq  400e50 <exit@plt>

000000000040210c <sigalrmhandler>:
  40210c:	48 83 ec 08          	sub    $0x8,%rsp
  402110:	83 3d 11 34 20 00 00 	cmpl   $0x0,0x203411(%rip)        # 605528 <is_checker>
  402117:	74 14                	je     40212d <sigalrmhandler+0x21>
  402119:	bf 94 35 40 00       	mov    $0x403594,%edi
  40211e:	e8 ad eb ff ff       	callq  400cd0 <puts@plt>
  402123:	b8 00 00 00 00       	mov    $0x0,%eax
  402128:	e8 91 fb ff ff       	callq  401cbe <check_fail>
  40212d:	ba 05 00 00 00       	mov    $0x5,%edx
  402132:	be 30 37 40 00       	mov    $0x403730,%esi
  402137:	bf 01 00 00 00       	mov    $0x1,%edi
  40213c:	b8 00 00 00 00       	mov    $0x0,%eax
  402141:	e8 ba ec ff ff       	callq  400e00 <__printf_chk@plt>
  402146:	be 00 00 00 00       	mov    $0x0,%esi
  40214b:	bf 00 00 00 00       	mov    $0x0,%edi
  402150:	e8 f0 fb ff ff       	callq  401d45 <notify_server>
  402155:	bf 01 00 00 00       	mov    $0x1,%edi
  40215a:	e8 f1 ec ff ff       	callq  400e50 <exit@plt>

000000000040215f <launch>:
  40215f:	55                   	push   %rbp
  402160:	48 89 e5             	mov    %rsp,%rbp
  402163:	48 83 ec 10          	sub    $0x10,%rsp
  402167:	48 89 fa             	mov    %rdi,%rdx
  40216a:	64 48 8b 04 25 28 00 	mov    %fs:0x28,%rax
  402171:	00 00 
  402173:	48 89 45 f8          	mov    %rax,-0x8(%rbp)
  402177:	31 c0                	xor    %eax,%eax
  402179:	48 8d 47 1e          	lea    0x1e(%rdi),%rax
  40217d:	48 83 e0 f0          	and    $0xfffffffffffffff0,%rax
  402181:	48 29 c4             	sub    %rax,%rsp
  402184:	48 8d 7c 24 0f       	lea    0xf(%rsp),%rdi
  402189:	48 83 e7 f0          	and    $0xfffffffffffffff0,%rdi
  40218d:	be f4 00 00 00       	mov    $0xf4,%esi
  402192:	e8 79 eb ff ff       	callq  400d10 <memset@plt>
  402197:	48 8b 05 22 33 20 00 	mov    0x203322(%rip),%rax        # 6054c0 <stdin@@GLIBC_2.2.5>
  40219e:	48 39 05 6b 33 20 00 	cmp    %rax,0x20336b(%rip)        # 605510 <infile>
  4021a5:	75 14                	jne    4021bb <launch+0x5c>
  4021a7:	be 9c 35 40 00       	mov    $0x40359c,%esi
  4021ac:	bf 01 00 00 00       	mov    $0x1,%edi
  4021b1:	b8 00 00 00 00       	mov    $0x0,%eax
  4021b6:	e8 45 ec ff ff       	callq  400e00 <__printf_chk@plt>
  4021bb:	c7 05 57 33 20 00 00 	movl   $0x0,0x203357(%rip)        # 60551c <vlevel>
  4021c2:	00 00 00 
  4021c5:	b8 00 00 00 00       	mov    $0x0,%eax
  4021ca:	e8 3c f9 ff ff       	callq  401b0b <test>
  4021cf:	83 3d 52 33 20 00 00 	cmpl   $0x0,0x203352(%rip)        # 605528 <is_checker>
  4021d6:	74 14                	je     4021ec <launch+0x8d>
  4021d8:	bf a9 35 40 00       	mov    $0x4035a9,%edi
  4021dd:	e8 ee ea ff ff       	callq  400cd0 <puts@plt>
  4021e2:	b8 00 00 00 00       	mov    $0x0,%eax
  4021e7:	e8 d2 fa ff ff       	callq  401cbe <check_fail>
  4021ec:	bf b4 35 40 00       	mov    $0x4035b4,%edi
  4021f1:	e8 da ea ff ff       	callq  400cd0 <puts@plt>
  4021f6:	48 8b 45 f8          	mov    -0x8(%rbp),%rax
  4021fa:	64 48 33 04 25 28 00 	xor    %fs:0x28,%rax
  402201:	00 00 
  402203:	74 05                	je     40220a <launch+0xab>
  402205:	e8 e6 ea ff ff       	callq  400cf0 <__stack_chk_fail@plt>
  40220a:	c9                   	leaveq 
  40220b:	c3                   	retq   

000000000040220c <stable_launch>:
  40220c:	53                   	push   %rbx
  40220d:	48 89 3d f4 32 20 00 	mov    %rdi,0x2032f4(%rip)        # 605508 <global_offset>
  402214:	41 b9 00 00 00 00    	mov    $0x0,%r9d
  40221a:	41 b8 00 00 00 00    	mov    $0x0,%r8d
  402220:	b9 32 01 00 00       	mov    $0x132,%ecx
  402225:	ba 07 00 00 00       	mov    $0x7,%edx
  40222a:	be 00 00 10 00       	mov    $0x100000,%esi
  40222f:	bf 00 60 58 55       	mov    $0x55586000,%edi
  402234:	e8 c7 ea ff ff       	callq  400d00 <mmap@plt>
  402239:	48 89 c3             	mov    %rax,%rbx
  40223c:	48 3d 00 60 58 55    	cmp    $0x55586000,%rax
  402242:	74 37                	je     40227b <stable_launch+0x6f>
  402244:	be 00 00 10 00       	mov    $0x100000,%esi
  402249:	48 89 c7             	mov    %rax,%rdi
  40224c:	e8 9f eb ff ff       	callq  400df0 <munmap@plt>
  402251:	b9 00 60 58 55       	mov    $0x55586000,%ecx
  402256:	ba 68 37 40 00       	mov    $0x403768,%edx
  40225b:	be 01 00 00 00       	mov    $0x1,%esi
  402260:	48 8b 3d 79 32 20 00 	mov    0x203279(%rip),%rdi        # 6054e0 <stderr@@GLIBC_2.2.5>
  402267:	b8 00 00 00 00       	mov    $0x0,%eax
  40226c:	e8 ff eb ff ff       	callq  400e70 <__fprintf_chk@plt>
  402271:	bf 01 00 00 00       	mov    $0x1,%edi
  402276:	e8 d5 eb ff ff       	callq  400e50 <exit@plt>
  40227b:	48 8d 90 f8 ff 0f 00 	lea    0xffff8(%rax),%rdx
  402282:	48 89 15 c7 3e 20 00 	mov    %rdx,0x203ec7(%rip)        # 606150 <stack_top>
  402289:	48 89 e0             	mov    %rsp,%rax
  40228c:	48 89 d4             	mov    %rdx,%rsp
  40228f:	48 89 c2             	mov    %rax,%rdx
  402292:	48 89 15 67 32 20 00 	mov    %rdx,0x203267(%rip)        # 605500 <global_save_stack>
  402299:	48 8b 3d 68 32 20 00 	mov    0x203268(%rip),%rdi        # 605508 <global_offset>
  4022a0:	e8 ba fe ff ff       	callq  40215f <launch>
  4022a5:	48 8b 05 54 32 20 00 	mov    0x203254(%rip),%rax        # 605500 <global_save_stack>
  4022ac:	48 89 c4             	mov    %rax,%rsp
  4022af:	be 00 00 10 00       	mov    $0x100000,%esi
  4022b4:	48 89 df             	mov    %rbx,%rdi
  4022b7:	e8 34 eb ff ff       	callq  400df0 <munmap@plt>
  4022bc:	5b                   	pop    %rbx
  4022bd:	c3                   	retq   

00000000004022be <rio_readinitb>:
  4022be:	89 37                	mov    %esi,(%rdi)
  4022c0:	c7 47 04 00 00 00 00 	movl   $0x0,0x4(%rdi)
  4022c7:	48 8d 47 10          	lea    0x10(%rdi),%rax
  4022cb:	48 89 47 08          	mov    %rax,0x8(%rdi)
  4022cf:	c3                   	retq   

00000000004022d0 <sigalrm_handler>:
  4022d0:	48 83 ec 08          	sub    $0x8,%rsp
  4022d4:	b9 00 00 00 00       	mov    $0x0,%ecx
  4022d9:	ba a0 37 40 00       	mov    $0x4037a0,%edx
  4022de:	be 01 00 00 00       	mov    $0x1,%esi
  4022e3:	48 8b 3d f6 31 20 00 	mov    0x2031f6(%rip),%rdi        # 6054e0 <stderr@@GLIBC_2.2.5>
  4022ea:	b8 00 00 00 00       	mov    $0x0,%eax
  4022ef:	e8 7c eb ff ff       	callq  400e70 <__fprintf_chk@plt>
  4022f4:	bf 01 00 00 00       	mov    $0x1,%edi
  4022f9:	e8 52 eb ff ff       	callq  400e50 <exit@plt>

00000000004022fe <rio_writen>:
  4022fe:	41 55                	push   %r13
  402300:	41 54                	push   %r12
  402302:	55                   	push   %rbp
  402303:	53                   	push   %rbx
  402304:	48 83 ec 08          	sub    $0x8,%rsp
  402308:	41 89 fc             	mov    %edi,%r12d
  40230b:	48 89 f5             	mov    %rsi,%rbp
  40230e:	49 89 d5             	mov    %rdx,%r13
  402311:	48 89 d3             	mov    %rdx,%rbx
  402314:	eb 28                	jmp    40233e <rio_writen+0x40>
  402316:	48 89 da             	mov    %rbx,%rdx
  402319:	48 89 ee             	mov    %rbp,%rsi
  40231c:	44 89 e7             	mov    %r12d,%edi
  40231f:	e8 bc e9 ff ff       	callq  400ce0 <write@plt>
  402324:	48 85 c0             	test   %rax,%rax
  402327:	7f 0f                	jg     402338 <rio_writen+0x3a>
  402329:	e8 62 e9 ff ff       	callq  400c90 <__errno_location@plt>
  40232e:	83 38 04             	cmpl   $0x4,(%rax)
  402331:	75 15                	jne    402348 <rio_writen+0x4a>
  402333:	b8 00 00 00 00       	mov    $0x0,%eax
  402338:	48 29 c3             	sub    %rax,%rbx
  40233b:	48 01 c5             	add    %rax,%rbp
  40233e:	48 85 db             	test   %rbx,%rbx
  402341:	75 d3                	jne    402316 <rio_writen+0x18>
  402343:	4c 89 e8             	mov    %r13,%rax
  402346:	eb 07                	jmp    40234f <rio_writen+0x51>
  402348:	48 c7 c0 ff ff ff ff 	mov    $0xffffffffffffffff,%rax
  40234f:	48 83 c4 08          	add    $0x8,%rsp
  402353:	5b                   	pop    %rbx
  402354:	5d                   	pop    %rbp
  402355:	41 5c                	pop    %r12
  402357:	41 5d                	pop    %r13
  402359:	c3                   	retq   

000000000040235a <rio_read>:
  40235a:	41 55                	push   %r13
  40235c:	41 54                	push   %r12
  40235e:	55                   	push   %rbp
  40235f:	53                   	push   %rbx
  402360:	48 83 ec 08          	sub    $0x8,%rsp
  402364:	48 89 fb             	mov    %rdi,%rbx
  402367:	49 89 f5             	mov    %rsi,%r13
  40236a:	49 89 d4             	mov    %rdx,%r12
  40236d:	eb 2e                	jmp    40239d <rio_read+0x43>
  40236f:	48 8d 6b 10          	lea    0x10(%rbx),%rbp
  402373:	8b 3b                	mov    (%rbx),%edi
  402375:	ba 00 20 00 00       	mov    $0x2000,%edx
  40237a:	48 89 ee             	mov    %rbp,%rsi
  40237d:	e8 be e9 ff ff       	callq  400d40 <read@plt>
  402382:	89 43 04             	mov    %eax,0x4(%rbx)
  402385:	85 c0                	test   %eax,%eax
  402387:	79 0c                	jns    402395 <rio_read+0x3b>
  402389:	e8 02 e9 ff ff       	callq  400c90 <__errno_location@plt>
  40238e:	83 38 04             	cmpl   $0x4,(%rax)
  402391:	74 0a                	je     40239d <rio_read+0x43>
  402393:	eb 37                	jmp    4023cc <rio_read+0x72>
  402395:	85 c0                	test   %eax,%eax
  402397:	74 3c                	je     4023d5 <rio_read+0x7b>
  402399:	48 89 6b 08          	mov    %rbp,0x8(%rbx)
  40239d:	8b 6b 04             	mov    0x4(%rbx),%ebp
  4023a0:	85 ed                	test   %ebp,%ebp
  4023a2:	7e cb                	jle    40236f <rio_read+0x15>
  4023a4:	89 e8                	mov    %ebp,%eax
  4023a6:	49 39 c4             	cmp    %rax,%r12
  4023a9:	77 03                	ja     4023ae <rio_read+0x54>
  4023ab:	44 89 e5             	mov    %r12d,%ebp
  4023ae:	4c 63 e5             	movslq %ebp,%r12
  4023b1:	48 8b 73 08          	mov    0x8(%rbx),%rsi
  4023b5:	4c 89 e2             	mov    %r12,%rdx
  4023b8:	4c 89 ef             	mov    %r13,%rdi
  4023bb:	e8 e0 e9 ff ff       	callq  400da0 <memcpy@plt>
  4023c0:	4c 01 63 08          	add    %r12,0x8(%rbx)
  4023c4:	29 6b 04             	sub    %ebp,0x4(%rbx)
  4023c7:	4c 89 e0             	mov    %r12,%rax
  4023ca:	eb 0e                	jmp    4023da <rio_read+0x80>
  4023cc:	48 c7 c0 ff ff ff ff 	mov    $0xffffffffffffffff,%rax
  4023d3:	eb 05                	jmp    4023da <rio_read+0x80>
  4023d5:	b8 00 00 00 00       	mov    $0x0,%eax
  4023da:	48 83 c4 08          	add    $0x8,%rsp
  4023de:	5b                   	pop    %rbx
  4023df:	5d                   	pop    %rbp
  4023e0:	41 5c                	pop    %r12
  4023e2:	41 5d                	pop    %r13
  4023e4:	c3                   	retq   

00000000004023e5 <rio_readlineb>:
  4023e5:	41 55                	push   %r13
  4023e7:	41 54                	push   %r12
  4023e9:	55                   	push   %rbp
  4023ea:	53                   	push   %rbx
  4023eb:	48 83 ec 18          	sub    $0x18,%rsp
  4023ef:	49 89 fd             	mov    %rdi,%r13
  4023f2:	48 89 f5             	mov    %rsi,%rbp
  4023f5:	49 89 d4             	mov    %rdx,%r12
  4023f8:	64 48 8b 04 25 28 00 	mov    %fs:0x28,%rax
  4023ff:	00 00 
  402401:	48 89 44 24 08       	mov    %rax,0x8(%rsp)
  402406:	31 c0                	xor    %eax,%eax
  402408:	bb 01 00 00 00       	mov    $0x1,%ebx
  40240d:	eb 3f                	jmp    40244e <rio_readlineb+0x69>
  40240f:	ba 01 00 00 00       	mov    $0x1,%edx
  402414:	48 8d 74 24 07       	lea    0x7(%rsp),%rsi
  402419:	4c 89 ef             	mov    %r13,%rdi
  40241c:	e8 39 ff ff ff       	callq  40235a <rio_read>
  402421:	83 f8 01             	cmp    $0x1,%eax
  402424:	75 15                	jne    40243b <rio_readlineb+0x56>
  402426:	48 8d 45 01          	lea    0x1(%rbp),%rax
  40242a:	0f b6 54 24 07       	movzbl 0x7(%rsp),%edx
  40242f:	88 55 00             	mov    %dl,0x0(%rbp)
  402432:	80 7c 24 07 0a       	cmpb   $0xa,0x7(%rsp)
  402437:	75 0e                	jne    402447 <rio_readlineb+0x62>
  402439:	eb 1a                	jmp    402455 <rio_readlineb+0x70>
  40243b:	85 c0                	test   %eax,%eax
  40243d:	75 22                	jne    402461 <rio_readlineb+0x7c>
  40243f:	48 83 fb 01          	cmp    $0x1,%rbx
  402443:	75 13                	jne    402458 <rio_readlineb+0x73>
  402445:	eb 23                	jmp    40246a <rio_readlineb+0x85>
  402447:	48 83 c3 01          	add    $0x1,%rbx
  40244b:	48 89 c5             	mov    %rax,%rbp
  40244e:	4c 39 e3             	cmp    %r12,%rbx
  402451:	72 bc                	jb     40240f <rio_readlineb+0x2a>
  402453:	eb 03                	jmp    402458 <rio_readlineb+0x73>
  402455:	48 89 c5             	mov    %rax,%rbp
  402458:	c6 45 00 00          	movb   $0x0,0x0(%rbp)
  40245c:	48 89 d8             	mov    %rbx,%rax
  40245f:	eb 0e                	jmp    40246f <rio_readlineb+0x8a>
  402461:	48 c7 c0 ff ff ff ff 	mov    $0xffffffffffffffff,%rax
  402468:	eb 05                	jmp    40246f <rio_readlineb+0x8a>
  40246a:	b8 00 00 00 00       	mov    $0x0,%eax
  40246f:	48 8b 4c 24 08       	mov    0x8(%rsp),%rcx
  402474:	64 48 33 0c 25 28 00 	xor    %fs:0x28,%rcx
  40247b:	00 00 
  40247d:	74 05                	je     402484 <rio_readlineb+0x9f>
  40247f:	e8 6c e8 ff ff       	callq  400cf0 <__stack_chk_fail@plt>
  402484:	48 83 c4 18          	add    $0x18,%rsp
  402488:	5b                   	pop    %rbx
  402489:	5d                   	pop    %rbp
  40248a:	41 5c                	pop    %r12
  40248c:	41 5d                	pop    %r13
  40248e:	c3                   	retq   

000000000040248f <urlencode>:
  40248f:	41 54                	push   %r12
  402491:	55                   	push   %rbp
  402492:	53                   	push   %rbx
  402493:	48 83 ec 10          	sub    $0x10,%rsp
  402497:	48 89 fb             	mov    %rdi,%rbx
  40249a:	48 89 f5             	mov    %rsi,%rbp
  40249d:	64 48 8b 04 25 28 00 	mov    %fs:0x28,%rax
  4024a4:	00 00 
  4024a6:	48 89 44 24 08       	mov    %rax,0x8(%rsp)
  4024ab:	31 c0                	xor    %eax,%eax
  4024ad:	48 c7 c1 ff ff ff ff 	mov    $0xffffffffffffffff,%rcx
  4024b4:	f2 ae                	repnz scas %es:(%rdi),%al
  4024b6:	48 f7 d1             	not    %rcx
  4024b9:	8d 41 ff             	lea    -0x1(%rcx),%eax
  4024bc:	e9 aa 00 00 00       	jmpq   40256b <urlencode+0xdc>
  4024c1:	44 0f b6 03          	movzbl (%rbx),%r8d
  4024c5:	41 80 f8 2a          	cmp    $0x2a,%r8b
  4024c9:	0f 94 c2             	sete   %dl
  4024cc:	41 80 f8 2d          	cmp    $0x2d,%r8b
  4024d0:	0f 94 c0             	sete   %al
  4024d3:	08 c2                	or     %al,%dl
  4024d5:	75 24                	jne    4024fb <urlencode+0x6c>
  4024d7:	41 80 f8 2e          	cmp    $0x2e,%r8b
  4024db:	74 1e                	je     4024fb <urlencode+0x6c>
  4024dd:	41 80 f8 5f          	cmp    $0x5f,%r8b
  4024e1:	74 18                	je     4024fb <urlencode+0x6c>
  4024e3:	41 8d 40 d0          	lea    -0x30(%r8),%eax
  4024e7:	3c 09                	cmp    $0x9,%al
  4024e9:	76 10                	jbe    4024fb <urlencode+0x6c>
  4024eb:	41 8d 40 bf          	lea    -0x41(%r8),%eax
  4024ef:	3c 19                	cmp    $0x19,%al
  4024f1:	76 08                	jbe    4024fb <urlencode+0x6c>
  4024f3:	41 8d 40 9f          	lea    -0x61(%r8),%eax
  4024f7:	3c 19                	cmp    $0x19,%al
  4024f9:	77 0a                	ja     402505 <urlencode+0x76>
  4024fb:	44 88 45 00          	mov    %r8b,0x0(%rbp)
  4024ff:	48 8d 6d 01          	lea    0x1(%rbp),%rbp
  402503:	eb 5f                	jmp    402564 <urlencode+0xd5>
  402505:	41 80 f8 20          	cmp    $0x20,%r8b
  402509:	75 0a                	jne    402515 <urlencode+0x86>
  40250b:	c6 45 00 2b          	movb   $0x2b,0x0(%rbp)
  40250f:	48 8d 6d 01          	lea    0x1(%rbp),%rbp
  402513:	eb 4f                	jmp    402564 <urlencode+0xd5>
  402515:	41 8d 40 e0          	lea    -0x20(%r8),%eax
  402519:	3c 5f                	cmp    $0x5f,%al
  40251b:	0f 96 c2             	setbe  %dl
  40251e:	41 80 f8 09          	cmp    $0x9,%r8b
  402522:	0f 94 c0             	sete   %al
  402525:	08 c2                	or     %al,%dl
  402527:	74 50                	je     402579 <urlencode+0xea>
  402529:	45 0f b6 c0          	movzbl %r8b,%r8d
  40252d:	b9 70 38 40 00       	mov    $0x403870,%ecx
  402532:	ba 08 00 00 00       	mov    $0x8,%edx
  402537:	be 01 00 00 00       	mov    $0x1,%esi
  40253c:	48 89 e7             	mov    %rsp,%rdi
  40253f:	b8 00 00 00 00       	mov    $0x0,%eax
  402544:	e8 37 e9 ff ff       	callq  400e80 <__sprintf_chk@plt>
  402549:	0f b6 04 24          	movzbl (%rsp),%eax
  40254d:	88 45 00             	mov    %al,0x0(%rbp)
  402550:	0f b6 44 24 01       	movzbl 0x1(%rsp),%eax
  402555:	88 45 01             	mov    %al,0x1(%rbp)
  402558:	0f b6 44 24 02       	movzbl 0x2(%rsp),%eax
  40255d:	88 45 02             	mov    %al,0x2(%rbp)
  402560:	48 8d 6d 03          	lea    0x3(%rbp),%rbp
  402564:	48 83 c3 01          	add    $0x1,%rbx
  402568:	44 89 e0             	mov    %r12d,%eax
  40256b:	44 8d 60 ff          	lea    -0x1(%rax),%r12d
  40256f:	85 c0                	test   %eax,%eax
  402571:	0f 85 4a ff ff ff    	jne    4024c1 <urlencode+0x32>
  402577:	eb 05                	jmp    40257e <urlencode+0xef>
  402579:	b8 ff ff ff ff       	mov    $0xffffffff,%eax
  40257e:	48 8b 74 24 08       	mov    0x8(%rsp),%rsi
  402583:	64 48 33 34 25 28 00 	xor    %fs:0x28,%rsi
  40258a:	00 00 
  40258c:	74 05                	je     402593 <urlencode+0x104>
  40258e:	e8 5d e7 ff ff       	callq  400cf0 <__stack_chk_fail@plt>
  402593:	48 83 c4 10          	add    $0x10,%rsp
  402597:	5b                   	pop    %rbx
  402598:	5d                   	pop    %rbp
  402599:	41 5c                	pop    %r12
  40259b:	c3                   	retq   

000000000040259c <submitr>:
  40259c:	41 57                	push   %r15
  40259e:	41 56                	push   %r14
  4025a0:	41 55                	push   %r13
  4025a2:	41 54                	push   %r12
  4025a4:	55                   	push   %rbp
  4025a5:	53                   	push   %rbx
  4025a6:	48 81 ec 58 a0 00 00 	sub    $0xa058,%rsp
  4025ad:	49 89 fc             	mov    %rdi,%r12
  4025b0:	89 74 24 04          	mov    %esi,0x4(%rsp)
  4025b4:	49 89 d7             	mov    %rdx,%r15
  4025b7:	49 89 ce             	mov    %rcx,%r14
  4025ba:	4c 89 44 24 08       	mov    %r8,0x8(%rsp)
  4025bf:	4d 89 cd             	mov    %r9,%r13
  4025c2:	48 8b 9c 24 90 a0 00 	mov    0xa090(%rsp),%rbx
  4025c9:	00 
  4025ca:	64 48 8b 04 25 28 00 	mov    %fs:0x28,%rax
  4025d1:	00 00 
  4025d3:	48 89 84 24 48 a0 00 	mov    %rax,0xa048(%rsp)
  4025da:	00 
  4025db:	31 c0                	xor    %eax,%eax
  4025dd:	c7 44 24 1c 00 00 00 	movl   $0x0,0x1c(%rsp)
  4025e4:	00 
  4025e5:	ba 00 00 00 00       	mov    $0x0,%edx
  4025ea:	be 01 00 00 00       	mov    $0x1,%esi
  4025ef:	bf 02 00 00 00       	mov    $0x2,%edi
  4025f4:	e8 97 e8 ff ff       	callq  400e90 <socket@plt>
  4025f9:	85 c0                	test   %eax,%eax
  4025fb:	79 4e                	jns    40264b <submitr+0xaf>
  4025fd:	48 b8 45 72 72 6f 72 	movabs $0x43203a726f727245,%rax
  402604:	3a 20 43 
  402607:	48 89 03             	mov    %rax,(%rbx)
  40260a:	48 b8 6c 69 65 6e 74 	movabs $0x6e7520746e65696c,%rax
  402611:	20 75 6e 
  402614:	48 89 43 08          	mov    %rax,0x8(%rbx)
  402618:	48 b8 61 62 6c 65 20 	movabs $0x206f7420656c6261,%rax
  40261f:	74 6f 20 
  402622:	48 89 43 10          	mov    %rax,0x10(%rbx)
  402626:	48 b8 63 72 65 61 74 	movabs $0x7320657461657263,%rax
  40262d:	65 20 73 
  402630:	48 89 43 18          	mov    %rax,0x18(%rbx)
  402634:	c7 43 20 6f 63 6b 65 	movl   $0x656b636f,0x20(%rbx)
  40263b:	66 c7 43 24 74 00    	movw   $0x74,0x24(%rbx)
  402641:	b8 ff ff ff ff       	mov    $0xffffffff,%eax
  402646:	e9 97 06 00 00       	jmpq   402ce2 <submitr+0x746>
  40264b:	89 c5                	mov    %eax,%ebp
  40264d:	4c 89 e7             	mov    %r12,%rdi
  402650:	e8 1b e7 ff ff       	callq  400d70 <gethostbyname@plt>
  402655:	48 85 c0             	test   %rax,%rax
  402658:	75 67                	jne    4026c1 <submitr+0x125>
  40265a:	48 b8 45 72 72 6f 72 	movabs $0x44203a726f727245,%rax
  402661:	3a 20 44 
  402664:	48 89 03             	mov    %rax,(%rbx)
  402667:	48 b8 4e 53 20 69 73 	movabs $0x6e7520736920534e,%rax
  40266e:	20 75 6e 
  402671:	48 89 43 08          	mov    %rax,0x8(%rbx)
  402675:	48 b8 61 62 6c 65 20 	movabs $0x206f7420656c6261,%rax
  40267c:	74 6f 20 
  40267f:	48 89 43 10          	mov    %rax,0x10(%rbx)
  402683:	48 b8 72 65 73 6f 6c 	movabs $0x2065766c6f736572,%rax
  40268a:	76 65 20 
  40268d:	48 89 43 18          	mov    %rax,0x18(%rbx)
  402691:	48 b8 73 65 72 76 65 	movabs $0x6120726576726573,%rax
  402698:	72 20 61 
  40269b:	48 89 43 20          	mov    %rax,0x20(%rbx)
  40269f:	c7 43 28 64 64 72 65 	movl   $0x65726464,0x28(%rbx)
  4026a6:	66 c7 43 2c 73 73    	movw   $0x7373,0x2c(%rbx)
  4026ac:	c6 43 2e 00          	movb   $0x0,0x2e(%rbx)
  4026b0:	89 ef                	mov    %ebp,%edi
  4026b2:	e8 79 e6 ff ff       	callq  400d30 <close@plt>
  4026b7:	b8 ff ff ff ff       	mov    $0xffffffff,%eax
  4026bc:	e9 21 06 00 00       	jmpq   402ce2 <submitr+0x746>
  4026c1:	48 c7 44 24 20 00 00 	movq   $0x0,0x20(%rsp)
  4026c8:	00 00 
  4026ca:	48 c7 44 24 28 00 00 	movq   $0x0,0x28(%rsp)
  4026d1:	00 00 
  4026d3:	66 c7 44 24 20 02 00 	movw   $0x2,0x20(%rsp)
  4026da:	48 63 50 14          	movslq 0x14(%rax),%rdx
  4026de:	48 8b 40 18          	mov    0x18(%rax),%rax
  4026e2:	48 8b 30             	mov    (%rax),%rsi
  4026e5:	48 8d 7c 24 24       	lea    0x24(%rsp),%rdi
  4026ea:	b9 0c 00 00 00       	mov    $0xc,%ecx
  4026ef:	e8 8c e6 ff ff       	callq  400d80 <__memmove_chk@plt>
  4026f4:	0f b7 44 24 04       	movzwl 0x4(%rsp),%eax
  4026f9:	66 c1 c8 08          	ror    $0x8,%ax
  4026fd:	66 89 44 24 22       	mov    %ax,0x22(%rsp)
  402702:	ba 10 00 00 00       	mov    $0x10,%edx
  402707:	48 8d 74 24 20       	lea    0x20(%rsp),%rsi
  40270c:	89 ef                	mov    %ebp,%edi
  40270e:	e8 4d e7 ff ff       	callq  400e60 <connect@plt>
  402713:	85 c0                	test   %eax,%eax
  402715:	79 59                	jns    402770 <submitr+0x1d4>
  402717:	48 b8 45 72 72 6f 72 	movabs $0x55203a726f727245,%rax
  40271e:	3a 20 55 
  402721:	48 89 03             	mov    %rax,(%rbx)
  402724:	48 b8 6e 61 62 6c 65 	movabs $0x6f7420656c62616e,%rax
  40272b:	20 74 6f 
  40272e:	48 89 43 08          	mov    %rax,0x8(%rbx)
  402732:	48 b8 20 63 6f 6e 6e 	movabs $0x7463656e6e6f6320,%rax
  402739:	65 63 74 
  40273c:	48 89 43 10          	mov    %rax,0x10(%rbx)
  402740:	48 b8 20 74 6f 20 74 	movabs $0x20656874206f7420,%rax
  402747:	68 65 20 
  40274a:	48 89 43 18          	mov    %rax,0x18(%rbx)
  40274e:	c7 43 20 73 65 72 76 	movl   $0x76726573,0x20(%rbx)
  402755:	66 c7 43 24 65 72    	movw   $0x7265,0x24(%rbx)
  40275b:	c6 43 26 00          	movb   $0x0,0x26(%rbx)
  40275f:	89 ef                	mov    %ebp,%edi
  402761:	e8 ca e5 ff ff       	callq  400d30 <close@plt>
  402766:	b8 ff ff ff ff       	mov    $0xffffffff,%eax
  40276b:	e9 72 05 00 00       	jmpq   402ce2 <submitr+0x746>
  402770:	48 c7 c6 ff ff ff ff 	mov    $0xffffffffffffffff,%rsi
  402777:	b8 00 00 00 00       	mov    $0x0,%eax
  40277c:	48 89 f1             	mov    %rsi,%rcx
  40277f:	4c 89 ef             	mov    %r13,%rdi
  402782:	f2 ae                	repnz scas %es:(%rdi),%al
  402784:	48 f7 d1             	not    %rcx
  402787:	48 89 ca             	mov    %rcx,%rdx
  40278a:	48 89 f1             	mov    %rsi,%rcx
  40278d:	4c 89 ff             	mov    %r15,%rdi
  402790:	f2 ae                	repnz scas %es:(%rdi),%al
  402792:	48 f7 d1             	not    %rcx
  402795:	49 89 c8             	mov    %rcx,%r8
  402798:	48 89 f1             	mov    %rsi,%rcx
  40279b:	4c 89 f7             	mov    %r14,%rdi
  40279e:	f2 ae                	repnz scas %es:(%rdi),%al
  4027a0:	48 f7 d1             	not    %rcx
  4027a3:	4d 8d 44 08 fe       	lea    -0x2(%r8,%rcx,1),%r8
  4027a8:	48 89 f1             	mov    %rsi,%rcx
  4027ab:	48 8b 7c 24 08       	mov    0x8(%rsp),%rdi
  4027b0:	f2 ae                	repnz scas %es:(%rdi),%al
  4027b2:	48 89 c8             	mov    %rcx,%rax
  4027b5:	48 f7 d0             	not    %rax
  4027b8:	49 8d 4c 00 ff       	lea    -0x1(%r8,%rax,1),%rcx
  4027bd:	48 8d 44 52 fd       	lea    -0x3(%rdx,%rdx,2),%rax
  4027c2:	48 8d 84 01 80 00 00 	lea    0x80(%rcx,%rax,1),%rax
  4027c9:	00 
  4027ca:	48 3d 00 20 00 00    	cmp    $0x2000,%rax
  4027d0:	76 72                	jbe    402844 <submitr+0x2a8>
  4027d2:	48 b8 45 72 72 6f 72 	movabs $0x52203a726f727245,%rax
  4027d9:	3a 20 52 
  4027dc:	48 89 03             	mov    %rax,(%rbx)
  4027df:	48 b8 65 73 75 6c 74 	movabs $0x747320746c757365,%rax
  4027e6:	20 73 74 
  4027e9:	48 89 43 08          	mov    %rax,0x8(%rbx)
  4027ed:	48 b8 72 69 6e 67 20 	movabs $0x6f6f7420676e6972,%rax
  4027f4:	74 6f 6f 
  4027f7:	48 89 43 10          	mov    %rax,0x10(%rbx)
  4027fb:	48 b8 20 6c 61 72 67 	movabs $0x202e656772616c20,%rax
  402802:	65 2e 20 
  402805:	48 89 43 18          	mov    %rax,0x18(%rbx)
  402809:	48 b8 49 6e 63 72 65 	movabs $0x6573616572636e49,%rax
  402810:	61 73 65 
  402813:	48 89 43 20          	mov    %rax,0x20(%rbx)
  402817:	48 b8 20 53 55 42 4d 	movabs $0x5254494d42555320,%rax
  40281e:	49 54 52 
  402821:	48 89 43 28          	mov    %rax,0x28(%rbx)
  402825:	48 b8 5f 4d 41 58 42 	movabs $0x46554258414d5f,%rax
  40282c:	55 46 00 
  40282f:	48 89 43 30          	mov    %rax,0x30(%rbx)
  402833:	89 ef                	mov    %ebp,%edi
  402835:	e8 f6 e4 ff ff       	callq  400d30 <close@plt>
  40283a:	b8 ff ff ff ff       	mov    $0xffffffff,%eax
  40283f:	e9 9e 04 00 00       	jmpq   402ce2 <submitr+0x746>
  402844:	48 8d b4 24 40 40 00 	lea    0x4040(%rsp),%rsi
  40284b:	00 
  40284c:	b9 00 04 00 00       	mov    $0x400,%ecx
  402851:	b8 00 00 00 00       	mov    $0x0,%eax
  402856:	48 89 f7             	mov    %rsi,%rdi
  402859:	f3 48 ab             	rep stos %rax,%es:(%rdi)
  40285c:	4c 89 ef             	mov    %r13,%rdi
  40285f:	e8 2b fc ff ff       	callq  40248f <urlencode>
  402864:	85 c0                	test   %eax,%eax
  402866:	0f 89 8a 00 00 00    	jns    4028f6 <submitr+0x35a>
  40286c:	48 b8 45 72 72 6f 72 	movabs $0x52203a726f727245,%rax
  402873:	3a 20 52 
  402876:	48 89 03             	mov    %rax,(%rbx)
  402879:	48 b8 65 73 75 6c 74 	movabs $0x747320746c757365,%rax
  402880:	20 73 74 
  402883:	48 89 43 08          	mov    %rax,0x8(%rbx)
  402887:	48 b8 72 69 6e 67 20 	movabs $0x6e6f6320676e6972,%rax
  40288e:	63 6f 6e 
  402891:	48 89 43 10          	mov    %rax,0x10(%rbx)
  402895:	48 b8 74 61 69 6e 73 	movabs $0x6e6120736e696174,%rax
  40289c:	20 61 6e 
  40289f:	48 89 43 18          	mov    %rax,0x18(%rbx)
  4028a3:	48 b8 20 69 6c 6c 65 	movabs $0x6c6167656c6c6920,%rax
  4028aa:	67 61 6c 
  4028ad:	48 89 43 20          	mov    %rax,0x20(%rbx)
  4028b1:	48 b8 20 6f 72 20 75 	movabs $0x72706e7520726f20,%rax
  4028b8:	6e 70 72 
  4028bb:	48 89 43 28          	mov    %rax,0x28(%rbx)
  4028bf:	48 b8 69 6e 74 61 62 	movabs $0x20656c6261746e69,%rax
  4028c6:	6c 65 20 
  4028c9:	48 89 43 30          	mov    %rax,0x30(%rbx)
  4028cd:	48 b8 63 68 61 72 61 	movabs $0x6574636172616863,%rax
  4028d4:	63 74 65 
  4028d7:	48 89 43 38          	mov    %rax,0x38(%rbx)
  4028db:	66 c7 43 40 72 2e    	movw   $0x2e72,0x40(%rbx)
  4028e1:	c6 43 42 00          	movb   $0x0,0x42(%rbx)
  4028e5:	89 ef                	mov    %ebp,%edi
  4028e7:	e8 44 e4 ff ff       	callq  400d30 <close@plt>
  4028ec:	b8 ff ff ff ff       	mov    $0xffffffff,%eax
  4028f1:	e9 ec 03 00 00       	jmpq   402ce2 <submitr+0x746>
  4028f6:	4c 8d ac 24 40 20 00 	lea    0x2040(%rsp),%r13
  4028fd:	00 
  4028fe:	41 54                	push   %r12
  402900:	48 8d 84 24 48 40 00 	lea    0x4048(%rsp),%rax
  402907:	00 
  402908:	50                   	push   %rax
  402909:	4d 89 f9             	mov    %r15,%r9
  40290c:	4d 89 f0             	mov    %r14,%r8
  40290f:	b9 c8 37 40 00       	mov    $0x4037c8,%ecx
  402914:	ba 00 20 00 00       	mov    $0x2000,%edx
  402919:	be 01 00 00 00       	mov    $0x1,%esi
  40291e:	4c 89 ef             	mov    %r13,%rdi
  402921:	b8 00 00 00 00       	mov    $0x0,%eax
  402926:	e8 55 e5 ff ff       	callq  400e80 <__sprintf_chk@plt>
  40292b:	b8 00 00 00 00       	mov    $0x0,%eax
  402930:	48 c7 c1 ff ff ff ff 	mov    $0xffffffffffffffff,%rcx
  402937:	4c 89 ef             	mov    %r13,%rdi
  40293a:	f2 ae                	repnz scas %es:(%rdi),%al
  40293c:	48 f7 d1             	not    %rcx
  40293f:	48 8d 51 ff          	lea    -0x1(%rcx),%rdx
  402943:	4c 89 ee             	mov    %r13,%rsi
  402946:	89 ef                	mov    %ebp,%edi
  402948:	e8 b1 f9 ff ff       	callq  4022fe <rio_writen>
  40294d:	48 83 c4 10          	add    $0x10,%rsp
  402951:	48 85 c0             	test   %rax,%rax
  402954:	79 6e                	jns    4029c4 <submitr+0x428>
  402956:	48 b8 45 72 72 6f 72 	movabs $0x43203a726f727245,%rax
  40295d:	3a 20 43 
  402960:	48 89 03             	mov    %rax,(%rbx)
  402963:	48 b8 6c 69 65 6e 74 	movabs $0x6e7520746e65696c,%rax
  40296a:	20 75 6e 
  40296d:	48 89 43 08          	mov    %rax,0x8(%rbx)
  402971:	48 b8 61 62 6c 65 20 	movabs $0x206f7420656c6261,%rax
  402978:	74 6f 20 
  40297b:	48 89 43 10          	mov    %rax,0x10(%rbx)
  40297f:	48 b8 77 72 69 74 65 	movabs $0x6f74206574697277,%rax
  402986:	20 74 6f 
  402989:	48 89 43 18          	mov    %rax,0x18(%rbx)
  40298d:	48 b8 20 74 68 65 20 	movabs $0x7365722065687420,%rax
  402994:	72 65 73 
  402997:	48 89 43 20          	mov    %rax,0x20(%rbx)
  40299b:	48 b8 75 6c 74 20 73 	movabs $0x7672657320746c75,%rax
  4029a2:	65 72 76 
  4029a5:	48 89 43 28          	mov    %rax,0x28(%rbx)
  4029a9:	66 c7 43 30 65 72    	movw   $0x7265,0x30(%rbx)
  4029af:	c6 43 32 00          	movb   $0x0,0x32(%rbx)
  4029b3:	89 ef                	mov    %ebp,%edi
  4029b5:	e8 76 e3 ff ff       	callq  400d30 <close@plt>
  4029ba:	b8 ff ff ff ff       	mov    $0xffffffff,%eax
  4029bf:	e9 1e 03 00 00       	jmpq   402ce2 <submitr+0x746>
  4029c4:	89 ee                	mov    %ebp,%esi
  4029c6:	48 8d 7c 24 30       	lea    0x30(%rsp),%rdi
  4029cb:	e8 ee f8 ff ff       	callq  4022be <rio_readinitb>
  4029d0:	ba 00 20 00 00       	mov    $0x2000,%edx
  4029d5:	48 8d b4 24 40 20 00 	lea    0x2040(%rsp),%rsi
  4029dc:	00 
  4029dd:	48 8d 7c 24 30       	lea    0x30(%rsp),%rdi
  4029e2:	e8 fe f9 ff ff       	callq  4023e5 <rio_readlineb>
  4029e7:	48 85 c0             	test   %rax,%rax
  4029ea:	7f 7d                	jg     402a69 <submitr+0x4cd>
  4029ec:	48 b8 45 72 72 6f 72 	movabs $0x43203a726f727245,%rax
  4029f3:	3a 20 43 
  4029f6:	48 89 03             	mov    %rax,(%rbx)
  4029f9:	48 b8 6c 69 65 6e 74 	movabs $0x6e7520746e65696c,%rax
  402a00:	20 75 6e 
  402a03:	48 89 43 08          	mov    %rax,0x8(%rbx)
  402a07:	48 b8 61 62 6c 65 20 	movabs $0x206f7420656c6261,%rax
  402a0e:	74 6f 20 
  402a11:	48 89 43 10          	mov    %rax,0x10(%rbx)
  402a15:	48 b8 72 65 61 64 20 	movabs $0x7269662064616572,%rax
  402a1c:	66 69 72 
  402a1f:	48 89 43 18          	mov    %rax,0x18(%rbx)
  402a23:	48 b8 73 74 20 68 65 	movabs $0x6564616568207473,%rax
  402a2a:	61 64 65 
  402a2d:	48 89 43 20          	mov    %rax,0x20(%rbx)
  402a31:	48 b8 72 20 66 72 6f 	movabs $0x72206d6f72662072,%rax
  402a38:	6d 20 72 
  402a3b:	48 89 43 28          	mov    %rax,0x28(%rbx)
  402a3f:	48 b8 65 73 75 6c 74 	movabs $0x657320746c757365,%rax
  402a46:	20 73 65 
  402a49:	48 89 43 30          	mov    %rax,0x30(%rbx)
  402a4d:	c7 43 38 72 76 65 72 	movl   $0x72657672,0x38(%rbx)
  402a54:	c6 43 3c 00          	movb   $0x0,0x3c(%rbx)
  402a58:	89 ef                	mov    %ebp,%edi
  402a5a:	e8 d1 e2 ff ff       	callq  400d30 <close@plt>
  402a5f:	b8 ff ff ff ff       	mov    $0xffffffff,%eax
  402a64:	e9 79 02 00 00       	jmpq   402ce2 <submitr+0x746>
  402a69:	4c 8d 84 24 40 80 00 	lea    0x8040(%rsp),%r8
  402a70:	00 
  402a71:	48 8d 4c 24 1c       	lea    0x1c(%rsp),%rcx
  402a76:	48 8d 94 24 40 60 00 	lea    0x6040(%rsp),%rdx
  402a7d:	00 
  402a7e:	be 77 38 40 00       	mov    $0x403877,%esi
  402a83:	48 8d bc 24 40 20 00 	lea    0x2040(%rsp),%rdi
  402a8a:	00 
  402a8b:	b8 00 00 00 00       	mov    $0x0,%eax
  402a90:	e8 4b e3 ff ff       	callq  400de0 <__isoc99_sscanf@plt>
  402a95:	e9 95 00 00 00       	jmpq   402b2f <submitr+0x593>
  402a9a:	ba 00 20 00 00       	mov    $0x2000,%edx
  402a9f:	48 8d b4 24 40 20 00 	lea    0x2040(%rsp),%rsi
  402aa6:	00 
  402aa7:	48 8d 7c 24 30       	lea    0x30(%rsp),%rdi
  402aac:	e8 34 f9 ff ff       	callq  4023e5 <rio_readlineb>
  402ab1:	48 85 c0             	test   %rax,%rax
  402ab4:	7f 79                	jg     402b2f <submitr+0x593>
  402ab6:	48 b8 45 72 72 6f 72 	movabs $0x43203a726f727245,%rax
  402abd:	3a 20 43 
  402ac0:	48 89 03             	mov    %rax,(%rbx)
  402ac3:	48 b8 6c 69 65 6e 74 	movabs $0x6e7520746e65696c,%rax
  402aca:	20 75 6e 
  402acd:	48 89 43 08          	mov    %rax,0x8(%rbx)
  402ad1:	48 b8 61 62 6c 65 20 	movabs $0x206f7420656c6261,%rax
  402ad8:	74 6f 20 
  402adb:	48 89 43 10          	mov    %rax,0x10(%rbx)
  402adf:	48 b8 72 65 61 64 20 	movabs $0x6165682064616572,%rax
  402ae6:	68 65 61 
  402ae9:	48 89 43 18          	mov    %rax,0x18(%rbx)
  402aed:	48 b8 64 65 72 73 20 	movabs $0x6f72662073726564,%rax
  402af4:	66 72 6f 
  402af7:	48 89 43 20          	mov    %rax,0x20(%rbx)
  402afb:	48 b8 6d 20 74 68 65 	movabs $0x657220656874206d,%rax
  402b02:	20 72 65 
  402b05:	48 89 43 28          	mov    %rax,0x28(%rbx)
  402b09:	48 b8 73 75 6c 74 20 	movabs $0x72657320746c7573,%rax
  402b10:	73 65 72 
  402b13:	48 89 43 30          	mov    %rax,0x30(%rbx)
  402b17:	c7 43 38 76 65 72 00 	movl   $0x726576,0x38(%rbx)
  402b1e:	89 ef                	mov    %ebp,%edi
  402b20:	e8 0b e2 ff ff       	callq  400d30 <close@plt>
  402b25:	b8 ff ff ff ff       	mov    $0xffffffff,%eax
  402b2a:	e9 b3 01 00 00       	jmpq   402ce2 <submitr+0x746>
  402b2f:	0f b6 94 24 40 20 00 	movzbl 0x2040(%rsp),%edx
  402b36:	00 
  402b37:	b8 0d 00 00 00       	mov    $0xd,%eax
  402b3c:	29 d0                	sub    %edx,%eax
  402b3e:	75 1b                	jne    402b5b <submitr+0x5bf>
  402b40:	0f b6 94 24 41 20 00 	movzbl 0x2041(%rsp),%edx
  402b47:	00 
  402b48:	b8 0a 00 00 00       	mov    $0xa,%eax
  402b4d:	29 d0                	sub    %edx,%eax
  402b4f:	75 0a                	jne    402b5b <submitr+0x5bf>
  402b51:	0f b6 84 24 42 20 00 	movzbl 0x2042(%rsp),%eax
  402b58:	00 
  402b59:	f7 d8                	neg    %eax
  402b5b:	85 c0                	test   %eax,%eax
  402b5d:	0f 85 37 ff ff ff    	jne    402a9a <submitr+0x4fe>
  402b63:	ba 00 20 00 00       	mov    $0x2000,%edx
  402b68:	48 8d b4 24 40 20 00 	lea    0x2040(%rsp),%rsi
  402b6f:	00 
  402b70:	48 8d 7c 24 30       	lea    0x30(%rsp),%rdi
  402b75:	e8 6b f8 ff ff       	callq  4023e5 <rio_readlineb>
  402b7a:	48 85 c0             	test   %rax,%rax
  402b7d:	0f 8f 83 00 00 00    	jg     402c06 <submitr+0x66a>
  402b83:	48 b8 45 72 72 6f 72 	movabs $0x43203a726f727245,%rax
  402b8a:	3a 20 43 
  402b8d:	48 89 03             	mov    %rax,(%rbx)
  402b90:	48 b8 6c 69 65 6e 74 	movabs $0x6e7520746e65696c,%rax
  402b97:	20 75 6e 
  402b9a:	48 89 43 08          	mov    %rax,0x8(%rbx)
  402b9e:	48 b8 61 62 6c 65 20 	movabs $0x206f7420656c6261,%rax
  402ba5:	74 6f 20 
  402ba8:	48 89 43 10          	mov    %rax,0x10(%rbx)
  402bac:	48 b8 72 65 61 64 20 	movabs $0x6174732064616572,%rax
  402bb3:	73 74 61 
  402bb6:	48 89 43 18          	mov    %rax,0x18(%rbx)
  402bba:	48 b8 74 75 73 20 6d 	movabs $0x7373656d20737574,%rax
  402bc1:	65 73 73 
  402bc4:	48 89 43 20          	mov    %rax,0x20(%rbx)
  402bc8:	48 b8 61 67 65 20 66 	movabs $0x6d6f726620656761,%rax
  402bcf:	72 6f 6d 
  402bd2:	48 89 43 28          	mov    %rax,0x28(%rbx)
  402bd6:	48 b8 20 72 65 73 75 	movabs $0x20746c7573657220,%rax
  402bdd:	6c 74 20 
  402be0:	48 89 43 30          	mov    %rax,0x30(%rbx)
  402be4:	c7 43 38 73 65 72 76 	movl   $0x76726573,0x38(%rbx)
  402beb:	66 c7 43 3c 65 72    	movw   $0x7265,0x3c(%rbx)
  402bf1:	c6 43 3e 00          	movb   $0x0,0x3e(%rbx)
  402bf5:	89 ef                	mov    %ebp,%edi
  402bf7:	e8 34 e1 ff ff       	callq  400d30 <close@plt>
  402bfc:	b8 ff ff ff ff       	mov    $0xffffffff,%eax
  402c01:	e9 dc 00 00 00       	jmpq   402ce2 <submitr+0x746>
  402c06:	44 8b 44 24 1c       	mov    0x1c(%rsp),%r8d
  402c0b:	41 81 f8 c8 00 00 00 	cmp    $0xc8,%r8d
  402c12:	74 37                	je     402c4b <submitr+0x6af>
  402c14:	4c 8d 8c 24 40 80 00 	lea    0x8040(%rsp),%r9
  402c1b:	00 
  402c1c:	b9 08 38 40 00       	mov    $0x403808,%ecx
  402c21:	48 c7 c2 ff ff ff ff 	mov    $0xffffffffffffffff,%rdx
  402c28:	be 01 00 00 00       	mov    $0x1,%esi
  402c2d:	48 89 df             	mov    %rbx,%rdi
  402c30:	b8 00 00 00 00       	mov    $0x0,%eax
  402c35:	e8 46 e2 ff ff       	callq  400e80 <__sprintf_chk@plt>
  402c3a:	89 ef                	mov    %ebp,%edi
  402c3c:	e8 ef e0 ff ff       	callq  400d30 <close@plt>
  402c41:	b8 ff ff ff ff       	mov    $0xffffffff,%eax
  402c46:	e9 97 00 00 00       	jmpq   402ce2 <submitr+0x746>
  402c4b:	48 8d b4 24 40 20 00 	lea    0x2040(%rsp),%rsi
  402c52:	00 
  402c53:	48 89 df             	mov    %rbx,%rdi
  402c56:	e8 65 e0 ff ff       	callq  400cc0 <strcpy@plt>
  402c5b:	89 ef                	mov    %ebp,%edi
  402c5d:	e8 ce e0 ff ff       	callq  400d30 <close@plt>
  402c62:	0f b6 03             	movzbl (%rbx),%eax
  402c65:	ba 4f 00 00 00       	mov    $0x4f,%edx
  402c6a:	29 c2                	sub    %eax,%edx
  402c6c:	75 22                	jne    402c90 <submitr+0x6f4>
  402c6e:	0f b6 4b 01          	movzbl 0x1(%rbx),%ecx
  402c72:	b8 4b 00 00 00       	mov    $0x4b,%eax
  402c77:	29 c8                	sub    %ecx,%eax
  402c79:	75 17                	jne    402c92 <submitr+0x6f6>
  402c7b:	0f b6 4b 02          	movzbl 0x2(%rbx),%ecx
  402c7f:	b8 0a 00 00 00       	mov    $0xa,%eax
  402c84:	29 c8                	sub    %ecx,%eax
  402c86:	75 0a                	jne    402c92 <submitr+0x6f6>
  402c88:	0f b6 43 03          	movzbl 0x3(%rbx),%eax
  402c8c:	f7 d8                	neg    %eax
  402c8e:	eb 02                	jmp    402c92 <submitr+0x6f6>
  402c90:	89 d0                	mov    %edx,%eax
  402c92:	85 c0                	test   %eax,%eax
  402c94:	74 40                	je     402cd6 <submitr+0x73a>
  402c96:	bf 88 38 40 00       	mov    $0x403888,%edi
  402c9b:	b9 05 00 00 00       	mov    $0x5,%ecx
  402ca0:	48 89 de             	mov    %rbx,%rsi
  402ca3:	f3 a6                	repz cmpsb %es:(%rdi),%ds:(%rsi)
  402ca5:	0f 97 c0             	seta   %al
  402ca8:	0f 92 c1             	setb   %cl
  402cab:	29 c8                	sub    %ecx,%eax
  402cad:	0f be c0             	movsbl %al,%eax
  402cb0:	85 c0                	test   %eax,%eax
  402cb2:	74 2e                	je     402ce2 <submitr+0x746>
  402cb4:	85 d2                	test   %edx,%edx
  402cb6:	75 13                	jne    402ccb <submitr+0x72f>
  402cb8:	0f b6 43 01          	movzbl 0x1(%rbx),%eax
  402cbc:	ba 4b 00 00 00       	mov    $0x4b,%edx
  402cc1:	29 c2                	sub    %eax,%edx
  402cc3:	75 06                	jne    402ccb <submitr+0x72f>
  402cc5:	0f b6 53 02          	movzbl 0x2(%rbx),%edx
  402cc9:	f7 da                	neg    %edx
  402ccb:	85 d2                	test   %edx,%edx
  402ccd:	75 0e                	jne    402cdd <submitr+0x741>
  402ccf:	b8 00 00 00 00       	mov    $0x0,%eax
  402cd4:	eb 0c                	jmp    402ce2 <submitr+0x746>
  402cd6:	b8 00 00 00 00       	mov    $0x0,%eax
  402cdb:	eb 05                	jmp    402ce2 <submitr+0x746>
  402cdd:	b8 ff ff ff ff       	mov    $0xffffffff,%eax
  402ce2:	48 8b 9c 24 48 a0 00 	mov    0xa048(%rsp),%rbx
  402ce9:	00 
  402cea:	64 48 33 1c 25 28 00 	xor    %fs:0x28,%rbx
  402cf1:	00 00 
  402cf3:	74 05                	je     402cfa <submitr+0x75e>
  402cf5:	e8 f6 df ff ff       	callq  400cf0 <__stack_chk_fail@plt>
  402cfa:	48 81 c4 58 a0 00 00 	add    $0xa058,%rsp
  402d01:	5b                   	pop    %rbx
  402d02:	5d                   	pop    %rbp
  402d03:	41 5c                	pop    %r12
  402d05:	41 5d                	pop    %r13
  402d07:	41 5e                	pop    %r14
  402d09:	41 5f                	pop    %r15
  402d0b:	c3                   	retq   

0000000000402d0c <init_timeout>:
  402d0c:	85 ff                	test   %edi,%edi
  402d0e:	74 23                	je     402d33 <init_timeout+0x27>
  402d10:	53                   	push   %rbx
  402d11:	89 fb                	mov    %edi,%ebx
  402d13:	85 ff                	test   %edi,%edi
  402d15:	79 05                	jns    402d1c <init_timeout+0x10>
  402d17:	bb 00 00 00 00       	mov    $0x0,%ebx
  402d1c:	be d0 22 40 00       	mov    $0x4022d0,%esi
  402d21:	bf 0e 00 00 00       	mov    $0xe,%edi
  402d26:	e8 35 e0 ff ff       	callq  400d60 <signal@plt>
  402d2b:	89 df                	mov    %ebx,%edi
  402d2d:	e8 ee df ff ff       	callq  400d20 <alarm@plt>
  402d32:	5b                   	pop    %rbx
  402d33:	f3 c3                	repz retq 

0000000000402d35 <init_driver>:
  402d35:	55                   	push   %rbp
  402d36:	53                   	push   %rbx
  402d37:	48 83 ec 28          	sub    $0x28,%rsp
  402d3b:	48 89 fd             	mov    %rdi,%rbp
  402d3e:	64 48 8b 04 25 28 00 	mov    %fs:0x28,%rax
  402d45:	00 00 
  402d47:	48 89 44 24 18       	mov    %rax,0x18(%rsp)
  402d4c:	31 c0                	xor    %eax,%eax
  402d4e:	be 01 00 00 00       	mov    $0x1,%esi
  402d53:	bf 0d 00 00 00       	mov    $0xd,%edi
  402d58:	e8 03 e0 ff ff       	callq  400d60 <signal@plt>
  402d5d:	be 01 00 00 00       	mov    $0x1,%esi
  402d62:	bf 1d 00 00 00       	mov    $0x1d,%edi
  402d67:	e8 f4 df ff ff       	callq  400d60 <signal@plt>
  402d6c:	be 01 00 00 00       	mov    $0x1,%esi
  402d71:	bf 1d 00 00 00       	mov    $0x1d,%edi
  402d76:	e8 e5 df ff ff       	callq  400d60 <signal@plt>
  402d7b:	ba 00 00 00 00       	mov    $0x0,%edx
  402d80:	be 01 00 00 00       	mov    $0x1,%esi
  402d85:	bf 02 00 00 00       	mov    $0x2,%edi
  402d8a:	e8 01 e1 ff ff       	callq  400e90 <socket@plt>
  402d8f:	85 c0                	test   %eax,%eax
  402d91:	79 4f                	jns    402de2 <init_driver+0xad>
  402d93:	48 b8 45 72 72 6f 72 	movabs $0x43203a726f727245,%rax
  402d9a:	3a 20 43 
  402d9d:	48 89 45 00          	mov    %rax,0x0(%rbp)
  402da1:	48 b8 6c 69 65 6e 74 	movabs $0x6e7520746e65696c,%rax
  402da8:	20 75 6e 
  402dab:	48 89 45 08          	mov    %rax,0x8(%rbp)
  402daf:	48 b8 61 62 6c 65 20 	movabs $0x206f7420656c6261,%rax
  402db6:	74 6f 20 
  402db9:	48 89 45 10          	mov    %rax,0x10(%rbp)
  402dbd:	48 b8 63 72 65 61 74 	movabs $0x7320657461657263,%rax
  402dc4:	65 20 73 
  402dc7:	48 89 45 18          	mov    %rax,0x18(%rbp)
  402dcb:	c7 45 20 6f 63 6b 65 	movl   $0x656b636f,0x20(%rbp)
  402dd2:	66 c7 45 24 74 00    	movw   $0x74,0x24(%rbp)
  402dd8:	b8 ff ff ff ff       	mov    $0xffffffff,%eax
  402ddd:	e9 4c 01 00 00       	jmpq   402f2e <init_driver+0x1f9>
  402de2:	89 c3                	mov    %eax,%ebx
  402de4:	bf 38 38 40 00       	mov    $0x403838,%edi
  402de9:	e8 82 df ff ff       	callq  400d70 <gethostbyname@plt>
  402dee:	48 85 c0             	test   %rax,%rax
  402df1:	75 68                	jne    402e5b <init_driver+0x126>
  402df3:	48 b8 45 72 72 6f 72 	movabs $0x44203a726f727245,%rax
  402dfa:	3a 20 44 
  402dfd:	48 89 45 00          	mov    %rax,0x0(%rbp)
  402e01:	48 b8 4e 53 20 69 73 	movabs $0x6e7520736920534e,%rax
  402e08:	20 75 6e 
  402e0b:	48 89 45 08          	mov    %rax,0x8(%rbp)
  402e0f:	48 b8 61 62 6c 65 20 	movabs $0x206f7420656c6261,%rax
  402e16:	74 6f 20 
  402e19:	48 89 45 10          	mov    %rax,0x10(%rbp)
  402e1d:	48 b8 72 65 73 6f 6c 	movabs $0x2065766c6f736572,%rax
  402e24:	76 65 20 
  402e27:	48 89 45 18          	mov    %rax,0x18(%rbp)
  402e2b:	48 b8 73 65 72 76 65 	movabs $0x6120726576726573,%rax
  402e32:	72 20 61 
  402e35:	48 89 45 20          	mov    %rax,0x20(%rbp)
  402e39:	c7 45 28 64 64 72 65 	movl   $0x65726464,0x28(%rbp)
  402e40:	66 c7 45 2c 73 73    	movw   $0x7373,0x2c(%rbp)
  402e46:	c6 45 2e 00          	movb   $0x0,0x2e(%rbp)
  402e4a:	89 df                	mov    %ebx,%edi
  402e4c:	e8 df de ff ff       	callq  400d30 <close@plt>
  402e51:	b8 ff ff ff ff       	mov    $0xffffffff,%eax
  402e56:	e9 d3 00 00 00       	jmpq   402f2e <init_driver+0x1f9>
  402e5b:	48 c7 04 24 00 00 00 	movq   $0x0,(%rsp)
  402e62:	00 
  402e63:	48 c7 44 24 08 00 00 	movq   $0x0,0x8(%rsp)
  402e6a:	00 00 
  402e6c:	66 c7 04 24 02 00    	movw   $0x2,(%rsp)
  402e72:	48 63 50 14          	movslq 0x14(%rax),%rdx
  402e76:	48 8b 40 18          	mov    0x18(%rax),%rax
  402e7a:	48 8b 30             	mov    (%rax),%rsi
  402e7d:	48 8d 7c 24 04       	lea    0x4(%rsp),%rdi
  402e82:	b9 0c 00 00 00       	mov    $0xc,%ecx
  402e87:	e8 f4 de ff ff       	callq  400d80 <__memmove_chk@plt>
  402e8c:	66 c7 44 24 02 3c 9a 	movw   $0x9a3c,0x2(%rsp)
  402e93:	ba 10 00 00 00       	mov    $0x10,%edx
  402e98:	48 89 e6             	mov    %rsp,%rsi
  402e9b:	89 df                	mov    %ebx,%edi
  402e9d:	e8 be df ff ff       	callq  400e60 <connect@plt>
  402ea2:	85 c0                	test   %eax,%eax
  402ea4:	79 72                	jns    402f18 <init_driver+0x1e3>
  402ea6:	48 b8 75 74 65 2e 61 	movabs $0x7a616d612e657475,%rax
  402ead:	6d 61 7a 
  402eb0:	48 89 45 20          	mov    %rax,0x20(%rbp)
  402eb4:	48 b8 6f 6e 61 77 73 	movabs $0x6f632e7377616e6f,%rax
  402ebb:	2e 63 6f 
  402ebe:	48 89 45 28          	mov    %rax,0x28(%rbp)
  402ec2:	66 c7 45 30 6d 00    	movw   $0x6d,0x30(%rbp)
  402ec8:	48 b8 45 72 72 6f 72 	movabs $0x55203a726f727245,%rax
  402ecf:	3a 20 55 
  402ed2:	48 89 45 00          	mov    %rax,0x0(%rbp)
  402ed6:	48 b8 6e 61 62 6c 65 	movabs $0x6f7420656c62616e,%rax
  402edd:	20 74 6f 
  402ee0:	48 89 45 08          	mov    %rax,0x8(%rbp)
  402ee4:	48 b8 20 63 6f 6e 6e 	movabs $0x7463656e6e6f6320,%rax
  402eeb:	65 63 74 
  402eee:	48 89 45 10          	mov    %rax,0x10(%rbp)
  402ef2:	48 b8 20 74 6f 20 73 	movabs $0x76726573206f7420,%rax
  402ef9:	65 72 76 
  402efc:	48 89 45 18          	mov    %rax,0x18(%rbp)
  402f00:	66 c7 45 20 65 72    	movw   $0x7265,0x20(%rbp)
  402f06:	c6 45 22 00          	movb   $0x0,0x22(%rbp)
  402f0a:	89 df                	mov    %ebx,%edi
  402f0c:	e8 1f de ff ff       	callq  400d30 <close@plt>
  402f11:	b8 ff ff ff ff       	mov    $0xffffffff,%eax
  402f16:	eb 16                	jmp    402f2e <init_driver+0x1f9>
  402f18:	89 df                	mov    %ebx,%edi
  402f1a:	e8 11 de ff ff       	callq  400d30 <close@plt>
  402f1f:	66 c7 45 00 4f 4b    	movw   $0x4b4f,0x0(%rbp)
  402f25:	c6 45 02 00          	movb   $0x0,0x2(%rbp)
  402f29:	b8 00 00 00 00       	mov    $0x0,%eax
  402f2e:	48 8b 4c 24 18       	mov    0x18(%rsp),%rcx
  402f33:	64 48 33 0c 25 28 00 	xor    %fs:0x28,%rcx
  402f3a:	00 00 
  402f3c:	74 05                	je     402f43 <init_driver+0x20e>
  402f3e:	e8 ad dd ff ff       	callq  400cf0 <__stack_chk_fail@plt>
  402f43:	48 83 c4 28          	add    $0x28,%rsp
  402f47:	5b                   	pop    %rbx
  402f48:	5d                   	pop    %rbp
  402f49:	c3                   	retq   

0000000000402f4a <driver_post>:
  402f4a:	53                   	push   %rbx
  402f4b:	4c 89 cb             	mov    %r9,%rbx
  402f4e:	45 85 c0             	test   %r8d,%r8d
  402f51:	74 27                	je     402f7a <driver_post+0x30>
  402f53:	48 89 ca             	mov    %rcx,%rdx
  402f56:	be 8d 38 40 00       	mov    $0x40388d,%esi
  402f5b:	bf 01 00 00 00       	mov    $0x1,%edi
  402f60:	b8 00 00 00 00       	mov    $0x0,%eax
  402f65:	e8 96 de ff ff       	callq  400e00 <__printf_chk@plt>
  402f6a:	66 c7 03 4f 4b       	movw   $0x4b4f,(%rbx)
  402f6f:	c6 43 02 00          	movb   $0x0,0x2(%rbx)
  402f73:	b8 00 00 00 00       	mov    $0x0,%eax
  402f78:	eb 3f                	jmp    402fb9 <driver_post+0x6f>
  402f7a:	48 85 ff             	test   %rdi,%rdi
  402f7d:	74 2c                	je     402fab <driver_post+0x61>
  402f7f:	80 3f 00             	cmpb   $0x0,(%rdi)
  402f82:	74 27                	je     402fab <driver_post+0x61>
  402f84:	48 83 ec 08          	sub    $0x8,%rsp
  402f88:	41 51                	push   %r9
  402f8a:	49 89 c9             	mov    %rcx,%r9
  402f8d:	49 89 d0             	mov    %rdx,%r8
  402f90:	48 89 f9             	mov    %rdi,%rcx
  402f93:	48 89 f2             	mov    %rsi,%rdx
  402f96:	be 9a 3c 00 00       	mov    $0x3c9a,%esi
  402f9b:	bf 38 38 40 00       	mov    $0x403838,%edi
  402fa0:	e8 f7 f5 ff ff       	callq  40259c <submitr>
  402fa5:	48 83 c4 10          	add    $0x10,%rsp
  402fa9:	eb 0e                	jmp    402fb9 <driver_post+0x6f>
  402fab:	66 c7 03 4f 4b       	movw   $0x4b4f,(%rbx)
  402fb0:	c6 43 02 00          	movb   $0x0,0x2(%rbx)
  402fb4:	b8 00 00 00 00       	mov    $0x0,%eax
  402fb9:	5b                   	pop    %rbx
  402fba:	c3                   	retq   

0000000000402fbb <check>:
  402fbb:	89 f8                	mov    %edi,%eax
  402fbd:	c1 e8 1c             	shr    $0x1c,%eax
  402fc0:	85 c0                	test   %eax,%eax
  402fc2:	74 1d                	je     402fe1 <check+0x26>
  402fc4:	b9 00 00 00 00       	mov    $0x0,%ecx
  402fc9:	eb 0b                	jmp    402fd6 <check+0x1b>
  402fcb:	89 f8                	mov    %edi,%eax
  402fcd:	d3 e8                	shr    %cl,%eax
  402fcf:	3c 0a                	cmp    $0xa,%al
  402fd1:	74 14                	je     402fe7 <check+0x2c>
  402fd3:	83 c1 08             	add    $0x8,%ecx
  402fd6:	83 f9 1f             	cmp    $0x1f,%ecx
  402fd9:	7e f0                	jle    402fcb <check+0x10>
  402fdb:	b8 01 00 00 00       	mov    $0x1,%eax
  402fe0:	c3                   	retq   
  402fe1:	b8 00 00 00 00       	mov    $0x0,%eax
  402fe6:	c3                   	retq   
  402fe7:	b8 00 00 00 00       	mov    $0x0,%eax
  402fec:	c3                   	retq   

0000000000402fed <gencookie>:
  402fed:	53                   	push   %rbx
  402fee:	83 c7 01             	add    $0x1,%edi
  402ff1:	e8 aa dc ff ff       	callq  400ca0 <srandom@plt>
  402ff6:	e8 c5 dd ff ff       	callq  400dc0 <random@plt>
  402ffb:	89 c3                	mov    %eax,%ebx
  402ffd:	89 c7                	mov    %eax,%edi
  402fff:	e8 b7 ff ff ff       	callq  402fbb <check>
  403004:	85 c0                	test   %eax,%eax
  403006:	74 ee                	je     402ff6 <gencookie+0x9>
  403008:	89 d8                	mov    %ebx,%eax
  40300a:	5b                   	pop    %rbx
  40300b:	c3                   	retq   
  40300c:	0f 1f 40 00          	nopl   0x0(%rax)

0000000000403010 <__libc_csu_init>:
  403010:	41 57                	push   %r15
  403012:	41 56                	push   %r14
  403014:	41 89 ff             	mov    %edi,%r15d
  403017:	41 55                	push   %r13
  403019:	41 54                	push   %r12
  40301b:	4c 8d 25 ee 1d 20 00 	lea    0x201dee(%rip),%r12        # 604e10 <__frame_dummy_init_array_entry>
  403022:	55                   	push   %rbp
  403023:	48 8d 2d ee 1d 20 00 	lea    0x201dee(%rip),%rbp        # 604e18 <__init_array_end>
  40302a:	53                   	push   %rbx
  40302b:	49 89 f6             	mov    %rsi,%r14
  40302e:	49 89 d5             	mov    %rdx,%r13
  403031:	4c 29 e5             	sub    %r12,%rbp
  403034:	48 83 ec 08          	sub    $0x8,%rsp
  403038:	48 c1 fd 03          	sar    $0x3,%rbp
  40303c:	e8 07 dc ff ff       	callq  400c48 <_init>
  403041:	48 85 ed             	test   %rbp,%rbp
  403044:	74 20                	je     403066 <__libc_csu_init+0x56>
  403046:	31 db                	xor    %ebx,%ebx
  403048:	0f 1f 84 00 00 00 00 	nopl   0x0(%rax,%rax,1)
  40304f:	00 
  403050:	4c 89 ea             	mov    %r13,%rdx
  403053:	4c 89 f6             	mov    %r14,%rsi
  403056:	44 89 ff             	mov    %r15d,%edi
  403059:	41 ff 14 dc          	callq  *(%r12,%rbx,8)
  40305d:	48 83 c3 01          	add    $0x1,%rbx
  403061:	48 39 eb             	cmp    %rbp,%rbx
  403064:	75 ea                	jne    403050 <__libc_csu_init+0x40>
  403066:	48 83 c4 08          	add    $0x8,%rsp
  40306a:	5b                   	pop    %rbx
  40306b:	5d                   	pop    %rbp
  40306c:	41 5c                	pop    %r12
  40306e:	41 5d                	pop    %r13
  403070:	41 5e                	pop    %r14
  403072:	41 5f                	pop    %r15
  403074:	c3                   	retq   
  403075:	90                   	nop
  403076:	66 2e 0f 1f 84 00 00 	nopw   %cs:0x0(%rax,%rax,1)
  40307d:	00 00 00 

0000000000403080 <__libc_csu_fini>:
  403080:	f3 c3                	repz retq 

Disassembly of section .fini:

0000000000403084 <_fini>:
  403084:	48 83 ec 08          	sub    $0x8,%rsp
  403088:	48 83 c4 08          	add    $0x8,%rsp
  40308c:	c3                   	retq   
